ccopy_reg
_reconstructor
p0
(csrc.DataStructures.RefinedPolicy
RefinedPolicy
p1
c__builtin__
object
p2
Ntp3
Rp4
(dp5
S'graph'
p6
g0
(cnetworkx.classes.digraph
DiGraph
p7
g2
Ntp8
Rp9
(dp10
S'adjlist_inner_dict_factory'
p11
c__builtin__
dict
p12
sS'node_dict_factory'
p13
g12
sS'edge_attr_dict_factory'
p14
g12
sS'_node'
p15
(dp16
g0
(csrc.DataStructures.RefinedPolicyNode
RefinedPolicyNode
p17
g2
Ntp18
Rp19
(dp20
S'parent'
p21
g0
(g17
g2
Ntp22
Rp23
(dp24
g21
NsS'goal'
p25
I00
sS'hl_state'
p26
g0
(csrc.States.PDDLState
PDDLState
p27
g2
Ntp28
Rp29
(dp30
S'_PDDLState__objDict'
p31
(dp32
sS'_PDDLState__trueSet'
p33
c__builtin__
set
p34
((lp35
tp36
Rp37
sS'_PDDLState__falseSet'
p38
g34
((lp39
tp40
Rp41
sbsS'll_state'
p42
NsS'visited'
p43
I00
sS'children'
p44
(lp45
g0
(g17
g2
Ntp46
Rp47
(dp48
g21
g23
sg25
I00
sg26
g0
(g27
g2
Ntp49
Rp50
(dp51
g31
(dp52
sg33
g34
((lp53
S'(in can1 top_drawer)'
p54
aS'(init)'
p55
aS'(closed bottom_drawer)'
p56
aS'(hand_empty fetch)'
p57
aS'(object_spawned can1)'
p58
aS'(closed top_drawer)'
p59
atp60
Rp61
sg38
g34
((lp62
tp63
Rp64
sbsg42
Nsg43
I00
sg44
(lp65
g0
(g17
g2
Ntp66
Rp67
(dp68
g21
g47
sg25
I00
sg26
g0
(g27
g2
Ntp69
Rp70
(dp71
g31
(dp72
sg33
g34
((lp73
S'(in can1 top_drawer)'
p74
aS'(opened top_drawer)'
p75
aS'(init)'
p76
aS'(closed bottom_drawer)'
p77
aS'(hand_empty fetch)'
p78
aS'(object_spawned can1)'
p79
aS'(visible can1)'
p80
atp81
Rp82
sg38
g34
((lp83
tp84
Rp85
sbsg42
Nsg43
I00
sg44
(lp86
g0
(g17
g2
Ntp87
Rp88
(dp89
g21
g67
sg25
I00
sg26
g0
(g27
g2
Ntp90
Rp91
(dp92
g31
(dp93
sg33
g34
((lp94
S'(opened top_drawer)'
p95
aS'(init)'
p96
aS'(closed bottom_drawer)'
p97
aS'(holding can1)'
p98
aS'(visible can1)'
p99
aS'(object_spawned can1)'
p100
atp101
Rp102
sg38
g34
((lp103
tp104
Rp105
sbsg42
Nsg43
I00
sg44
(lp106
g0
(g17
g2
Ntp107
Rp108
(dp109
g21
g88
sg25
I00
sg26
g0
(g27
g2
Ntp110
Rp111
(dp112
g31
(dp113
sg33
g34
((lp114
S'(opened top_drawer)'
p115
aS'(init)'
p116
aS'(closed bottom_drawer)'
p117
aS'(holding can1)'
p118
aS'(visible can1)'
p119
aS'(terminated)'
p120
aS'(object_spawned can1)'
p121
atp122
Rp123
sg38
g34
((lp124
tp125
Rp126
sbsg42
Nsg43
I00
sg44
(lp127
sbasbasbasbag19
asbsg25
I00
sg26
g0
(g27
g2
Ntp128
Rp129
(dp130
g31
(dp131
sg33
g34
((lp132
S'(closed top_drawer)'
p133
aS'(init)'
p134
aS'(closed bottom_drawer)'
p135
aS'(hand_empty fetch)'
p136
aS'(object_spawned can1)'
p137
aS'(in can1 bottom_drawer)'
p138
atp139
Rp140
sg38
g34
((lp141
tp142
Rp143
sbsg42
Nsg43
I00
sg44
(lp144
g0
(g17
g2
Ntp145
Rp146
(dp147
g21
g19
sg25
I00
sg26
g0
(g27
g2
Ntp148
Rp149
(dp150
g31
(dp151
sg33
g34
((lp152
S'(in can1 bottom_drawer)'
p153
aS'(init)'
p154
aS'(hand_empty fetch)'
p155
aS'(object_spawned can1)'
p156
aS'(visible can1)'
p157
aS'(opened bottom_drawer)'
p158
aS'(closed top_drawer)'
p159
atp160
Rp161
sg38
g34
((lp162
tp163
Rp164
sbsg42
Nsg43
I00
sg44
(lp165
g0
(g17
g2
Ntp166
Rp167
(dp168
g21
g146
sg25
I00
sg26
g0
(g27
g2
Ntp169
Rp170
(dp171
g31
(dp172
sg33
g34
((lp173
S'(init)'
p174
aS'(holding can1)'
p175
aS'(visible can1)'
p176
aS'(object_spawned can1)'
p177
aS'(opened bottom_drawer)'
p178
aS'(closed top_drawer)'
p179
atp180
Rp181
sg38
g34
((lp182
tp183
Rp184
sbsg42
Nsg43
I00
sg44
(lp185
g0
(g17
g2
Ntp186
Rp187
(dp188
g21
g167
sg25
I00
sg26
g0
(g27
g2
Ntp189
Rp190
(dp191
g31
(dp192
sg33
g34
((lp193
S'(init)'
p194
aS'(holding can1)'
p195
aS'(visible can1)'
p196
aS'(terminated)'
p197
aS'(object_spawned can1)'
p198
aS'(opened bottom_drawer)'
p199
aS'(closed top_drawer)'
p200
atp201
Rp202
sg38
g34
((lp203
tp204
Rp205
sbsg42
Nsg43
I00
sg44
(lp206
sbasbasbasb(dp207
sg108
(dp208
sg167
(dp209
sg88
(dp210
sg146
(dp211
sg23
(dp212
sg47
(dp213
sg67
(dp214
sg187
(dp215
ssg6
(dp216
sS'_pred'
p217
(dp218
g19
(dp219
g23
(dp220
S'label'
p221
Nsssg108
(dp222
g88
(dp223
g221
Nsssg167
(dp224
g146
(dp225
g221
Nsssg88
(dp226
g67
(dp227
g221
Nsssg146
(dp228
g19
(dp229
g221
Nsssg23
(dp230
sg47
(dp231
g23
(dp232
g221
Nsssg67
(dp233
g47
(dp234
g221
Nsssg187
(dp235
g167
(dp236
g221
NssssS'_succ'
p237
(dp238
g19
(dp239
g146
g229
ssg108
(dp240
sg167
(dp241
g187
g236
ssg88
(dp242
g108
g223
ssg146
(dp243
g167
g225
ssg23
(dp244
g47
g232
sg19
g220
ssg47
(dp245
g67
g234
ssg67
(dp246
g88
g227
ssg187
(dp247
ssS'_adj'
p248
g238
sS'adjlist_outer_dict_factory'
p249
g12
sbsS'edges'
p250
(dp251
g19
(dp252
g146
g0
(csrc.DataStructures.RefinedPolicyEdge
RefinedPolicyEdge
p253
g2
Ntp254
Rp255
(dp256
S'generated_values'
p257
(dp258
Vg_open
p259
S'open'
p260
sS'next_hl_state'
p261
g0
(g27
g2
Ntp262
Rp263
(dp264
g31
(dp265
sg33
g34
((lp266
g159
ag154
ag155
ag156
ag157
ag158
ag153
atp267
Rp268
sg38
g34
((lp269
tp270
Rp271
sbsVpose_current
p272
cnumpy.core.multiarray
_reconstruct
p273
(cnumpy
ndarray
p274
(I0
tp275
S'b'
p276
tp277
Rp278
(I1
(I4
I4
tp279
cnumpy
dtype
p280
(S'f8'
p281
I0
I1
tp282
Rp283
(I3
S'<'
p284
NNNI-1
I-1
I0
tp285
bI00
S'\x00\x00\x00\x00\x00\x00\xf0?\x00\x00\x00\x00\x00\x00\x00\x00\x00\x00\x00\x00\x00\x00\x00\x00\x08\xaa\xa3p=\n\xdf?\x00\x00\x00\x00\x00\x00\x00\x00\x00\x00\x00\x00\x00\x00\xb0<\x00\x00\x00\x00\x00\x00\xf0\xbf\x00\x00\x00\x00\x00\x00\x00\x00\x00\x00\x00\x00\x00\x00\x00\x00\x00\x00\x00\x00\x00\x00\xf0?\x00\x00\x00\x00\x00\x00\xb0<\xb4\x9d\xef\xa7\xc6K\xd7?\x00\x00\x00\x00\x00\x00\x00\x00\x00\x00\x00\x00\x00\x00\x00\x00\x00\x00\x00\x00\x00\x00\x00\x00\x00\x00\x00\x00\x00\x00\xf0?'
p286
tp287
bsVdopenpose
p288
g273
(g274
(I0
tp289
g276
tp290
Rp291
(I1
(I4
I4
tp292
g283
I00
S'\x00\x00\x00\x00\x00\x00\xf0?\x00\x00\x00\x00\x00\x00\x00\x00\x00\x00\x00\x00\x00\x00\x00\x00\xb8A(\\\x8f\xc2\xb5?\x00\x00\x00\x00\x00\x00\x00\x00\x00\x00\x00\x00\x00\x00\xb0<\x00\x00\x00\x00\x00\x00\xf0\xbf\x00\x00\x00\x00\x00\x00\x00\x00\x00\x00\x00\x00\x00\x00\x00\x00\x00\x00\x00\x00\x00\x00\xf0?\x00\x00\x00\x00\x00\x00\xb0<\xb4\x9d\xef\xa7\xc6K\xd7?\x00\x00\x00\x00\x00\x00\x00\x00\x00\x00\x00\x00\x00\x00\x00\x00\x00\x00\x00\x00\x00\x00\x00\x00\x00\x00\x00\x00\x00\x00\xf0?'
p293
tp294
bsVgppose
p295
g273
(g274
(I0
tp296
g276
tp297
Rp298
(I1
(I4
I4
tp299
g283
I00
S'\x00\x00\x00\x00\x00\x00\xf0?\x00\x00\x00\x00\x00\x00\x00\x00\x00\x00\x00\x00\x00\x00\x00\x00\x08\xaa\xa3p=\n\xdf?\x00\x00\x00\x00\x00\x00\x00\x00\x00\x00\x00\x00\x00\x00\xb0<\x00\x00\x00\x00\x00\x00\xf0\xbf\x00\x00\x00\x00\x00\x00\x00\x00\x00\x00\x00\x00\x00\x00\x00\x00\x00\x00\x00\x00\x00\x00\xf0?\x00\x00\x00\x00\x00\x00\xb0<\xb4\x9d\xef\xa7\xc6K\xd7?\x00\x00\x00\x00\x00\x00\x00\x00\x00\x00\x00\x00\x00\x00\x00\x00\x00\x00\x00\x00\x00\x00\x00\x00\x00\x00\x00\x00\x00\x00\xf0?'
p300
tp301
bsVrobot
p302
S'fetch'
p303
sS'current_hl_state'
p304
g0
(g27
g2
Ntp305
Rp306
(dp307
g31
(dp308
sg33
g34
((lp309
g133
ag134
ag135
ag136
ag137
ag138
atp310
Rp311
sg38
g34
((lp312
tp313
Rp314
sbsVdrawer
p315
S'bottom_drawer'
p316
sVtraj1
p317
S'<trajectory>\n<configuration>\n<group name="joint_values fetch 11 10 9 12 1 2 13 14" offset="0" dof="8" interpolation="linear"/>\n<group name="joint_velocities fetch 11 10 9 12 1 2 13 14" offset="8" dof="8" interpolation="next"/>\n<group name="deltatime" offset="16" dof="1" interpolation=""/>\n</configuration>\n<data count="29">\n0 1.32000492 1.39998343 -0.1998453339999998 1.71996798 2.706226490104954e-06 1.660006469999999 -1.347754262645325e-06 0 0 0 0 0 0 0 0 0 0.001122156703967361 1.302359095302335 1.373836839709404 -0.223791609420311 1.684730749657768 0.01851206585605763 1.642850572558962 0.0122670601149651 0.04843741492045531 -0.7616744875939144 -1.128606404242078 -1.033630752489674 -1.521 0.7989486041651489 -0.7405269867803244 0.5295605865688859 0.02316714683907439 0.001520467360066252 1.290599659818115 1.370559218173322 -0.2662156997503572 1.674152287967133 -0.01799282380243154 1.637249049022236 -0.0009209266835123169 0.01474978098206111 -0.4354618567419335 -0.1213731017713356 -1.571 -0.3917293968285199 -1.351806985307823 -0.2074291613028175 -0.488362321954953 0.02700451325910005 0.006345393632078798 1.285877487712564 1.348298709896369 -0.2862782627667107 1.681334133393672 -0.05075579113612639 1.641194326258191 -0.03983915466004982 0.1 -0.09787034742774114 -0.4613647343396139 -0.4158107686065248 0.1488488118087544 -0.6790356056576374 0.0817686533126923 -0.8066077237757284 0.04824926272012545 0.01117031990409134 1.281155315607013 1.326038201619416 -0.3063408257830642 1.688515978820212 -0.08351875846982125 1.645139603494147 -0.07875738263658733 0.1 -0.09787034742774121 -0.4613647343396142 -0.415810768606525 0.1488488118087729 -0.679035605657638 0.08176865331271536 -0.806607723775729 0.04824926272012542 0.01599524617610389 1.276433143501462 1.303777693342464 -0.3264033887994176 1.695697824246751 -0.1162817258035161 1.649084880730103 -0.1176756106131248 0.09999999999999999 -0.09787034742774105 -0.461364734339595 -0.4158107686065221 0.1488488118087542 -0.6790356056576368 0.08176865331271523 -0.806607723775727 0.0482492627201255 0.02082017244811643 1.27171097139591 1.281517185065511 -0.3464659518157711 1.70287966967329 -0.149044693137211 1.653030157966059 -0.1565938385896623 0.1 -0.09787034742775963 -0.4613647343396189 -0.4158107686065252 0.1488488118087499 -0.6790356056576389 0.08176865331271077 -0.8066077237757291 0.04824926272012541 0.02564509872012898 1.266988799290359 1.259256676788558 -0.3665285148321245 1.71006151509983 -0.1818076604709058 1.656975435202015 -0.1955120665661998 0.1 -0.09787034742774109 -0.4613647343396137 -0.4158107686065223 0.1488488118087727 -0.6790356056576359 0.08176865331271527 -0.8066077237757278 0.04824926272012548 0.03047002499214152 1.262266627184808 1.236996168511606 -0.386591077848478 1.717243360526369 -0.2145706278046007 1.660920712437971 -0.2344302945427373 0.1 -0.09787034742774123 -0.4613647343395959 -0.4158107686065252 0.1488488118087545 -0.6790356056576391 0.08176865331271538 -0.8066077237757294 0.04824926272012541 0.03529495126415407 1.257544455079256 1.214735660234653 -0.4066536408648314 1.724425205952908 -0.2473335951382955 1.664865989673926 -0.2733485225192748 0.09999999999999999 -0.09787034742775942 -0.4613647343396133 -0.4158107686065219 0.1488488118087496 -0.6790356056576353 0.08176865331269219 -0.8066077237757264 0.04824926272012552 0.04011987753616662 1.252822282973705 1.1924751519577 -0.4267162038811849 1.731607051379448 -0.2800965624719904 1.668811266909882 -0.3122667504958123 0.09999999999999999 -0.09787034742774101 -0.4613647343396179 -0.4158107686065242 0.1488488118087726 -0.6790356056576371 0.0817686533127152 -0.8066077237757282 0.04824926272012552 0.04494480380817916 1.248100110868154 1.170214643680747 -0.4467787668975383 1.738788896805987 -0.3128595298056853 1.672756544145838 -0.3511849784723498 0.09999999999999999 -0.0978703474277413 -0.4613647343396146 -0.4158107686065231 0.1488488118087546 -0.6790356056576402 0.08176865331271543 -0.8066077237757294 0.04824926272012538 0.04976973008019171 1.243377938762603 1.147954135403795 -0.4668413299138918 1.745970742232526 -0.3456224971393801 1.676701821381794 -0.3901032064488873 0.09999999999999999 -0.09787034742774101 -0.4613647343395949 -0.4158107686065242 0.1488488118087496 -0.6790356056576348 0.08176865331271059 -0.8066077237757271 0.04824926272012552 0.05459465635220425 1.238655766657051 1.125693627126842 -0.4869038929302452 1.753152587659066 -0.378385464473075 1.68064709861775 -0.4290214344254248 0.09999999999999999 -0.0978703474277597 -0.4613647343396146 -0.4158107686065231 0.148848811808773 -0.679035605657639 0.08176865331271543 -0.8066077237757294 0.04824926272012538 0.05941958262421679 1.2339335945515 1.103433118849889 -0.5069664559465987 1.760334433085605 -0.4111484318067699 1.684592375853706 -0.4679396624019623 0.09999999999999999 -0.0978703474277413 -0.4613647343396192 -0.4158107686065254 0.1488488118087546 -0.6790356056576402 0.08176865331271543 -0.8066077237757294 0.04824926272012538 0.06424450889622935 1.229211422445949 1.081172610572937 -0.5270290189629522 1.767516278512144 -0.4439113991404647 1.688537653089661 -0.5068578903784998 0.1 -0.09787034742774088 -0.4613647343395942 -0.4158107686065225 0.148848811808754 -0.6790356056576339 0.08176865331269208 -0.8066077237757271 0.04824926272012559 0.06906943516824189 1.224489250340398 1.058912102295984 -0.5470915819793056 1.774698123938684 -0.4766743664741596 1.692482930325617 -0.5457761183550374 0.1 -0.09787034742774116 -0.461364734339614 -0.4158107686065237 0.1488488118087728 -0.6790356056576392 0.08176865331271532 -0.8066077237757294 0.04824926272012545 0.07389436144025444 1.219767078234846 1.036651594019031 -0.5671541449956591 1.781879969365223 -0.5094373338078545 1.696428207561573 -0.5846943463315749 0.1 -0.09787034742775957 -0.461364734339614 -0.4158107686065237 0.1488488118087498 -0.6790356056576381 0.08176865331271532 -0.8066077237757294 0.04824926272012545 0.07871928771226698 1.215044906129295 1.014391085742079 -0.5872167080120125 1.789061814791762 -0.5422003011415494 1.700373484797529 -0.6236125743081125 0.1 -0.09787034742774116 -0.4613647343395956 -0.4158107686065237 0.1488488118087544 -0.6790356056576381 0.08176865331271072 -0.8066077237757294 0.04824926272012545 0.08354421398427953 1.210322734023744 0.9921305774651258 -0.607279271028366 1.796243660218302 -0.5749632684752443 1.704318762033485 -0.66253080228465 0.1 -0.09787034742774116 -0.4613647343396209 -0.4158107686065237 0.1488488118087728 -0.6790356056576381 0.08176865331271532 -0.8066077237757294 0.04824926272012545 0.07888415981728703 0.7291650097275916 0.888937633382493 -0.9594618962676376 1.113219322824156 -0.6487464595398934 1.008541626956618 -1.488271553543277 -0.0103772911153317 -1.07147118863516 -0.2297963035233857 -0.7842616194799202 -1.521 -0.164304882659798 -1.549398702964848 -1.838809561978483 0.4490626807325087 0.0633063224973634 0.1913962827292049 0.8238549694568578 -1.317158331294766 0.2914979697030614 -0.6465228215999639 0.1802540957405191 -2.479636127967841 -0.02883445887539461 -0.9954058400183829 -0.1204675179182098 -0.6620933916464579 -1.521 0.004115936982514297 -1.533153945914351 -1.835008317567172 0.5402507252604176 0.05916652473081815 0.06396078206034345 0.8106275192221261 -1.400148486356785 0.09292398987511657 -0.6418093347237059 -0.01917011884011444 -2.717470074443082 -0.03170925218082982 -0.9761067219646932 -0.1013171606091547 -0.6356725385606957 -1.521 0.03610348921344139 -1.527512469861157 -1.821716183068285 0.1305548848309959 0.03528266507619274 -0.4629823678531817 0.789063213091906 -1.716545651606033 -0.7862799169183616 -0.5591351376535585 -0.8912383256598848 2.538366767181249 -0.04131845895359336 -0.9115980090915773 -0.03730569139949146 -0.5473589057391985 -1.521 0.1430242208571439 -1.508655423757621 -1.777286251841679 0.5780433312251666 0.03126111274435419 -0.4534919043901454 0.8112505704735248 -1.693236521284826 -0.8086758744812893 -0.5190512833844468 -0.9067545543589078 2.527978490378999 -0.1 0.2359900525948768 0.5517112684562615 0.5796052966082041 -0.5568983246996274 0.996725914810771 -0.3858268503975781 -0.258315096884517 0.04021552331838547 0.02723956041251564 -0.444001440927109 0.8334379278551436 -1.66992739096362 -0.831071832044217 -0.4789674291153351 -0.9222707830579309 2.517590213576749 -0.1 0.2359900525948793 0.551711268456261 0.5796052966081761 -0.556898324699627 0.9967259148107729 -0.3858268503975778 -0.2583150968845057 0.04021552331838551 0.0232180080806771 -0.4345109774640727 0.8556252852367624 -1.646618260642413 -0.8534677896071446 -0.4388835748462234 -0.9377870117569539 2.5072019367745 -0.1 0.2359900525948785 0.5517112684562624 0.5796052966082106 -0.5568983246996284 0.9967259148107727 -0.3858268503975788 -0.2583150968844843 0.0402155233183854 0.01919645574883855 -0.4250205140010364 0.8778126426183812 -1.623309130321207 -0.8758637471700723 -0.3987997205771117 -0.9533032404559769 2.49681365997225 -0.1 0.2359900525948768 0.5517112684562615 0.5796052966081765 -0.5568983246996274 0.9967259148107723 -0.3858268503975781 -0.2583150968845059 0.04021552331838547 0.015174903417 -0.415530050538 0.9 -1.6 -0.898259704733 -0.358715866308 -0.9688194691549999 2.48642538317 -0.1 0.2359900525948793 0.551711268456261 0.5796052966082036 -0.556898324699627 0.9967259148107714 -0.3858268503975778 -0.2583150968845168 0.04021552331838551 </data>\n<description><![CDATA[{"planning_method": "PlanToConfigurations", "planner": "CBiRRTPlanner", "deterministic_endpoint": false, "deterministic": false, "smooth": true, "constrained": false}]]></description>\n</trajectory>\n'
p318
sVtraj2
p319
S'<trajectory>\n<configuration>\n<group name="joint_values fetch 11 10 9 12 1 2 13 14" offset="0" dof="8" interpolation="linear"/>\n<group name="joint_velocities fetch 11 10 9 12 1 2 13 14" offset="8" dof="8" interpolation="next"/>\n<group name="deltatime" offset="16" dof="1" interpolation=""/>\n</configuration>\n<data count="28">\n0.01517490341700001 -0.415530050538 0.8999999999999996 -1.6 -0.8982597047330002 -0.3587158663079995 -0.9688194691550002 2.48642538317 0 0 0 0 0 0 0 0 0 0.0298167354136891 -0.4061707650818702 0.9165980930742423 -1.576348933403235 -0.8376837730798882 -0.3709027942991928 -1.019951843651892 2.464609919165813 0.09999999999999999 0.06392154655405266 0.1133607671362165 0.1615307879650116 0.4137182537459101 -0.08323362810028893 -0.3492211528479098 -0.1489940876873866 0.1464183199668909 0.04313169379046191 -0.3955353290497938 0.9323951705512039 -1.549946440708093 -0.7758568458026583 -0.3839563720993631 -1.072309824678471 2.443080292779046 0.1 0.07987584888458465 0.1186415836231128 0.1982919656827445 0.4643418742118143 -0.09803694034028322 -0.3932267720634756 -0.1616950333417808 0.1331495837677281 0.05548643590326355 -0.3829096197404093 0.9458650351417138 -1.520498960442139 -0.7129139092090315 -0.397931711459256 -1.125181018820842 2.422201093215195 0.09999999999999999 0.102193224221994 0.1090258660806268 0.2383496150473367 0.5094637833711406 -0.1131172082128045 -0.4279425151868391 -0.1689974535544263 0.1235474211280164 0.0604711424932444 -0.3941594246341231 0.9547635319794856 -1.496478367288523 -0.6866640723572383 -0.428842193951204 -1.161717106700082 2.422442597986673 0.09999999999999999 -0.2256864008069331 0.1785159603106339 0.4818857984920716 0.5266074618023625 -0.6201063579966243 -0.7329636603421494 0.004844914482294787 0.04984706589980854 0.06494425920255523 -0.4050155996492243 0.9623167574344762 -1.47153158648191 -0.6605316533860309 -0.4596250561678154 -1.198228819994553 2.422384463823864 0.1 -0.2426982285640784 0.1688582244963228 0.5577046705418156 0.5842105330453934 -0.6881748055564182 -0.8162477231696551 -0.001299634384409629 0.04473116709310825 0.06894800311714447 -0.4154837938549127 0.9685596183346604 -1.445717626592246 -0.6345608240775362 -0.4902917648059507 -1.234676544112493 2.421999148384959 0.1 -0.2614601340396259 0.1559255794916319 0.6447455291933277 0.6486635974358801 -0.7659508023574859 -0.9103410431703211 -0.00962387822809554 0.04003743914589242 0.07248178598743225 -0.425541120074194 0.9734884505089685 -1.419094357345409 -0.6087600035221552 -0.5208582196516871 -1.270991782974572 2.421299474251013 0.09999999999999999 -0.284605098514789 0.1394775048503947 0.753392900019037 0.7301190113381201 -0.8649782957164854 -1.027659032687587 -0.01979957908078897 0.03533782870287785 0.07554691453285367 -0.4351683964555825 0.9771065610870732 -1.391720194276922 -0.5831340282521755 -0.5513425955985327 -1.307106443095971 2.420297396046575 0.09999999999999999 -0.3140904610923868 0.1180410715077282 0.8930836884272774 0.8360489581508375 -0.9945545674546706 -1.178242921503103 -0.03269286066109938 0.03065128545421417 0.07834462423904047 -0.4444223514710221 0.9797894631617661 -1.363343556021796 -0.5576389003245088 -0.5815529522839826 -1.342280695125126 2.418674197345966 0.1 -0.330768949865514 0.09589637083361401 1.014281009654951 0.911285680257938 -1.079824565738302 -1.257251670942539 -0.05801883937491001 0.02797709706186799 0.08048688974807162 -0.4531391217825757 0.9808118937679396 -1.334655839656148 -0.5323726861366448 -0.611917396194254 -1.377780044503791 2.417115297585983 0.09999999999999999 -0.4068949565217891 0.04772660540270619 1.339129825164478 1.179415627117608 -1.417398720292322 -1.657093820957783 -0.07276874661013195 0.02142265509031155 0.08212640736642977 -0.4613897239051766 0.9805728531610812 -1.305395537104149 -0.507272759620803 -0.6422677905070519 -1.412877610344999 2.415276667922473 0.08486486705560083 -0.4270684525881236 -0.01237324265063099 1.514574566492774 1.299224786010777 -1.571 -1.816723544619232 -0.09517132369368361 0.01931915615073065 0.08329043525033994 -0.4691714480553232 0.9790985214966956 -1.275619295113793 -0.4823343869778911 -0.6726285823901988 -1.447511440957605 2.413165978707879 0.06023188764842322 -0.4026604011823011 -0.07628836078005796 1.5407528350015 1.290420341234973 -1.571 -1.792105690188096 -0.1092162802896994 0.01932577459143666 0.08400794455348821 -0.476485474711236 0.9764204676003519 -1.245384365187918 -0.4575498934493479 -0.703027778685583 -1.481618421977617 2.410785982938557 0.03708016173496988 -0.3779815678279534 -0.1383991415521322 1.562510878643265 1.280837787782356 -1.571 -1.762614598813412 -0.1229957962465154 0.01935022042990715 0.08430833908267732 -0.4833366854568391 0.9725745315196995 -1.214747173931569 -0.432910303331933 -0.7334939920666577 -1.515136506919109 2.408136848170891 0.01540349444593053 -0.3513132777506824 -0.1972101663024631 1.571 1.263457728568284 -1.562232674046114 -1.718725159969478 -0.1358411312962817 0.01950171308488161 0.08422159161773556 -0.4897335974080203 0.967601027722974 -1.183763123881355 -0.4084061026352889 -0.7640551335223413 -1.548003009977153 2.405215860490058 -0.004398400699800385 -0.3243458701822064 -0.2521740847950227 1.571 1.242448912651497 -1.549557051097896 -1.666446969344171 -0.1481043194531377 0.0197225016233061 0.08375576453147596 -0.4956780900612193 0.9614876138778209 -1.152545549471259 -0.3840441065915243 -0.7947826992312457 -1.580277034312021 2.402062987806963 -0.02344238354012397 -0.2991519403620104 -0.3076527671422613 1.571 1.225998384178641 -1.54634069561397 -1.624165015641963 -0.1586658502058576 0.01987114857421769 0.08294171582331973 -0.5011876457273609 0.9542850560814439 -1.121144371258543 -0.3598146594850481 -0.8257083977690551 -1.611900109983489 2.39866395533054 -0.04072683234527621 -0.2756429039978897 -0.3603437495707122 1.571 1.212198508808171 -1.547211766188572 -1.582101523176549 -0.1700534923972316 0.01998801923151888 0.08159547745494283 -0.5058928426462008 0.9452913678590229 -1.089553689653335 -0.3356402463990093 -0.8568972712383696 -1.642366713242182 2.39540369742284 -0.06694823819095599 -0.2339887582001085 -0.4472548067811906 1.571 1.202190045557805 -1.551018139862342 -1.515099747373482 -0.1621321514048161 0.02010864519745884 0.08024923908656592 -0.5105980395650409 0.936297679636602 -1.057963008048126 -0.3114658333129705 -0.888086144707684 -1.672833316500875 2.39214343951514 -0.06694823819095387 -0.2339887582001042 -0.4472548067811662 1.571 1.202190045557755 -1.551018139862277 -1.51509974737343 -0.1621321514047872 0.02010864519745969 0.08019050990537364 -0.5108033021462323 0.9359053331119385 -1.05658487553641 -0.3104112329392947 -0.8894467484790435 -1.674162411485183 2.392001211896397 -0.06694823819096242 -0.23398875820012 -0.4472548067812624 1.571 1.202190045558 -1.551018139862569 -1.515099747373274 -0.1621321514050027 0.0008772326618179019 0.07090536338947158 -0.5550378102797945 0.9188649138241735 -1.044351918589965 -0.3177898741864814 -0.9236790260239818 -1.711110567204964 2.411970286282234 -0.1 -0.4764007553117731 -0.1835234291519363 0.131747591979237 -0.07946714932876738 -0.3686778392383029 -0.3979275465013111 0.2150647203211865 0.09285146515902065 0.05971256968593409 -0.5994445400230062 0.8996347533809984 -1.030180286151536 -0.3285095344705858 -0.9568682251438081 -1.748793458499204 2.436082201405446 -0.09999999999999999 -0.3967439311346988 -0.1718084059487073 0.1266138983152183 -0.09577287465520259 -0.296522923578381 -0.3366710071885829 0.215423564141911 0.1119279370353749 0.0463635273938157 -0.6436637628249341 0.8780813612488614 -1.013559306640754 -0.3426715933608608 -0.9884863012703534 -1.787429991569782 2.464941507995893 -0.09999999999999999 -0.3312538969783327 -0.1614602131035474 0.1245106513790532 -0.1060904488903794 -0.2368565132587334 -0.2894329962037052 0.2161900903369394 0.1334904229211839 0.03062483302988263 -0.6872864791976379 0.8544147874712495 -0.9931427591640867 -0.3600664078802672 -1.017058227446702 -1.826734126783484 2.499309579257366 -0.1 -0.2771685844072935 -0.1503719001739202 0.1297219896680507 -0.1105226019209609 -0.1815393673431019 -0.2497293250942831 0.2183667238639 0.1573869436393306 0.02161149617980892 -0.7028729814683118 0.8370227555950349 -0.9624903069612853 -0.3523651467530569 -1.046518479291808 -1.858950222665017 2.511393030615487 -0.09999999999999999 -0.1729271026916792 -0.1929588582509528 0.340078848851085 0.08544295254145894 -0.3268517790374739 -0.3574269598197641 0.1340619080271292 0.09013336850073714 0.01182557589363149 -0.7176436616098865 0.818302626613171 -0.9312261609037399 -0.3445977441767138 -1.075281997206052 -1.89146634044734 2.524285875014192 -0.09999999999999999 -0.1509380795022232 -0.1912965611247215 0.3194808985078892 0.07937324594105412 -0.2939275721964788 -0.3322745008280097 0.1317489211200317 0.0978592028617743 0.002130340109981949 -0.7326918408945562 0.7999999999999993 -0.8999999999999999 -0.3369380005273002 -1.104133515214396 -1.923994306032027 2.536344726343987 -0.09999999999999999 -0.1552121023198592 -0.188779592591632 0.3220773749143997 0.07900523329542219 -0.2975844904875896 -0.3355046366127951 0.1243791445498555 0.09695235783649542 </data>\n<description><![CDATA[{"deterministic_endpoint": false, "planning_method": "PlanToTSR", "deterministic": false, "constrained": true, "planner": "CBiRRTPlanner"}]]></description>\n</trajectory>\n'
p320
sVpose_end
p321
g273
(g274
(I0
tp322
g276
tp323
Rp324
(I1
(I4
I4
tp325
g283
I00
S'\x00\x00\x00\x00\x00\x00\xf0?\x00\x00\x00\x00\x00\x00\x00\x00\x00\x00\x00\x00\x00\x00\x00\x00\xb8A(\\\x8f\xc2\xb5?\x00\x00\x00\x00\x00\x00\x00\x00\x00\x00\x00\x00\x00\x00\xb0<\x00\x00\x00\x00\x00\x00\xf0\xbf\x00\x00\x00\x00\x00\x00\x00\x00\x00\x00\x00\x00\x00\x00\x00\x00\x00\x00\x00\x00\x00\x00\xf0?\x00\x00\x00\x00\x00\x00\xb0<\xb4\x9d\xef\xa7\xc6K\xd7?\x00\x00\x00\x00\x00\x00\x00\x00\x00\x00\x00\x00\x00\x00\x00\x00\x00\x00\x00\x00\x00\x00\x00\x00\x00\x00\x00\x00\x00\x00\xf0?'
p326
tp327
bsVg_close
p328
S'close'
p329
sVcpose
p330
g273
(g274
(I0
tp331
g276
tp332
Rp333
(I1
(I8
tp334
g283
I00
S'\x00\x00\x00\x00\x00\x00\x00\x00uX\x9fz\xbd\x1e\xf5?\xa5\xabl\x06Uf\xf6?\x9c\xe3\xe4*\x88\x94\xc9\xbfaF\x04%\xfd\x84\xfb?\xaeU#\xbf\x93\xb3\xc6>A\xc6\xbc\xf1b\x8f\xfa?q\x95\xb0{\x8f\x9c\xb6\xbe'
p335
tp336
bssS'll_plan'
p337
ccollections
OrderedDict
p338
((lp339
(lp340
g330
a(dp341
S'type'
p342
VManipPose
p343
sS'value'
p344
g333
saa(lp345
g295
a(dp346
g342
VManipPose
p347
sg344
g298
saa(lp348
g272
ag278
aa(lp349
g321
ag324
aa(lp350
g317
a(dp351
g342
VManipTrajectory
p352
sg344
g318
saa(lp353
g328
a(dp354
g342
VDrawerGripperCloseTrajectory
p355
sg344
g329
saa(lp356
g288
a(dp357
g342
VManipPose
p358
sg344
g291
saa(lp359
g319
a(dp360
g342
VManipTrajectory
p361
sg344
g320
saa(lp362
g259
a(dp363
g342
VGripperOpenTrajectory
p364
sg344
g260
saatp365
Rp366
sS'exec_seq'
p367
(lp368
Vtraj1
p369
aVg_close
p370
aVtraj2
p371
aVg_open
p372
asS'effect'
p373
g34
((lp374
g157
ag158
ag154
ag155
ag153
ag159
ag156
atp375
Rp376
sS'has_mp'
p377
I01
sbssg108
(dp378
sg167
(dp379
g187
g0
(g253
g2
Ntp380
Rp381
(dp382
g257
Nsg337
Nsg367
Nsg373
(lp383
sg377
I00
sbssg88
(dp384
g108
g0
(g253
g2
Ntp385
Rp386
(dp387
g257
Nsg337
Nsg367
Nsg373
(lp388
sg377
I00
sbssg146
(dp389
g167
g0
(g253
g2
Ntp390
Rp391
(dp392
g257
(dp393
g261
g0
(g27
g2
Ntp394
Rp395
(dp396
g31
(dp397
sg33
g34
((lp398
g174
ag175
ag176
ag177
ag178
ag179
atp399
Rp400
sg38
g34
((lp401
tp402
Rp403
sbsVpose_current
p404
g273
(g274
(I0
tp405
g276
tp406
Rp407
(I1
(I8
tp408
g283
I00
S'\x80^A\xa3\xa5sa?`\x05\xd6(6r\xe7\xbf\x96\x99\x99\x99\x99\x99\xe9?\xcc\xcc\xcc\xcc\xcc\xcc\xec\xbf7\xd7Bgd\x90\xd5\xbf\xad6\xa4\xe7\x87\xaa\xf1\xbfx\x90\xe1@\xae\xc8\xfe\xbfg<\x98\x1aoJ\x04@'
p409
tp410
bsVrobot
p411
S'fetch'
p412
sVgripper_close_traj
p413
g329
sg304
g263
sVdrawer
p414
S'bottom_drawer'
p415
sVcan
p416
S'can1'
p417
sVpose_end
p418
g273
(g274
(I0
tp419
g276
tp420
Rp421
(I1
(I4
I4
tp422
g283
I00
S'\x04\x1e\x8f+\x8ckj\xbdU.\x17-\xfc\x8fQ=\x00\x00\x00\x00\x00\x00\xf0?\x08\xb2\x99\x99\x99\x99\xe1?9\xfe\xff\xff\xffz{\xbd\x00\x00\x00\x00\x00\x00\xf0?\x16\x89\x17-\xfc\x8fQ\xbd\x98\xb6\xd3J\xd5\xd0I=\x00\x00\x00\x00\x00\x00\xf0\xbf\xd9\x01\x00\x00\x00{{\xbd\xf0\x0e\x8f+\x8ckj\xbd0J\xbaI\x0c\x02\xe3?\x00\x00\x00\x00\x00\x00\x00\x00\x00\x00\x00\x00\x00\x00\x00\x00\x00\x00\x00\x00\x00\x00\x00\x00\x00\x00\x00\x00\x00\x00\xf0?'
p423
tp424
bsVgpose
p425
g273
(g274
(I0
tp426
g276
tp427
Rp428
(I1
(I4
I4
tp429
g283
I00
S'\x04\x1e\x8f+\x8ckj\xbdU.\x17-\xfc\x8fQ=\x00\x00\x00\x00\x00\x00\xf0?\x08\xb2\x99\x99\x99\x99\xe1?9\xfe\xff\xff\xffz{\xbd\x00\x00\x00\x00\x00\x00\xf0?\x16\x89\x17-\xfc\x8fQ\xbd\x98\xb6\xd3J\xd5\xd0I=\x00\x00\x00\x00\x00\x00\xf0\xbf\xd9\x01\x00\x00\x00{{\xbd\xf0\x0e\x8f+\x8ckj\xbd0J\xbaI\x0c\x02\xe3?\x00\x00\x00\x00\x00\x00\x00\x00\x00\x00\x00\x00\x00\x00\x00\x00\x00\x00\x00\x00\x00\x00\x00\x00\x00\x00\x00\x00\x00\x00\xf0?'
p430
tp431
bsVcpose
p432
g273
(g274
(I0
tp433
g276
tp434
Rp435
(I1
(I8
tp436
g283
I00
S'r\xfe\xd1\x9a\x0b@\xc1?^\xbdN\xd6\x10\xf5\xe1?233333\xd3\xbf\x99\x99\x99\x99\x99\x99\xc9\xbfQ\xda;{\xb2\xd4\xf7?\xb8g\xc0_\xdfI\xde?\xd1\x1f\xa9\xfa\xd8|\xdb?\x18\xc7\x92\xaf=\x15\xf8\xbf'
p437
tp438
bsVtraj1
p439
S'<trajectory>\n<configuration>\n<group name="joint_values fetch 11 10 9 12 1 2 13 14" offset="0" dof="8" interpolation="linear"/>\n<group name="joint_velocities fetch 11 10 9 12 1 2 13 14" offset="8" dof="8" interpolation="next"/>\n<group name="deltatime" offset="16" dof="1" interpolation=""/>\n</configuration>\n<data count="44">\n0.002130340109981976 -0.7326918408945566 0.7999999999999996 -0.8999999999999999 -0.3369380005273003 -1.104133515214396 -1.923994306032027 2.536344726343987 0 0 0 0 0 0 0 0 0 0.003919559416494885 -0.7405345643930233 0.7837391627959139 -0.8604847672419931 -0.3123686258586846 -1.101868721360939 -1.922593344313035 2.503216552845301 0.07113367008985223 -0.3118017472285964 -0.6464791794106876 1.571 0.976800208688488 0.09004100179721265 0.05569778303002842 -1.317070834054233 0.02515291709612148 0.005708778723007794 -0.7483772878914901 0.7674783255918283 -0.8209695344839862 -0.287799251190069 -1.099603927507483 -1.921192382594044 2.470088379346616 0.07113367008985222 -0.3118017472285964 -0.6464791794106876 1.571 0.9768002086884836 0.09004100179717733 0.05569778302998428 -1.317070834054215 0.02515291709612148 0.007497998029520702 -0.7562200113899568 0.7512174883877426 -0.7814543017259794 -0.2632298765214534 -1.097339133654026 -1.919791420875052 2.43696020584793 0.07113367008985222 -0.3118017472285964 -0.6464791794106876 1.571 0.9768002086884836 0.09004100179721265 0.05569778303002842 -1.317070834054251 0.02515291709612148 0.009287217336033611 -0.7640627348884235 0.7349566511836569 -0.7419390689679726 -0.2386605018528377 -1.09507433980057 -1.918390459156061 2.403832032349244 0.07113367008985222 -0.3118017472285964 -0.6464791794106876 1.571 0.9768002086884892 0.09004100179716851 0.05569778302998428 -1.317070834054233 0.02515291709612148 0.03097288280980683 -0.7218047675773605 0.6292922639505922 -0.5801413881634345 -0.07766713154376295 -0.9022711663435338 -1.65562806628161 2.567562299515396 0.1 0.1948659005284854 -0.4872545293150256 0.7461042917968885 0.7423953417698025 0.8890811937047245 1.211687015979463 0.7550161066727163 0.2168566547377322 0.1820989650316464 -0.4068079639182311 -0.09342559591716576 0.5000623368515955 1.023860095580031 0.4660529803364661 0.2122472787354099 -2.490193671656404 0.1 0.208433116923353 -0.478221792851662 0.7147698856041194 0.7288796288034849 0.9054189234333638 1.235971526261857 0.8108655488130537 1.511260822218396 0.1960541434017874 -0.3687081603754345 -0.1541619275542139 0.5789945609392546 1.116598170893575 0.6032588256191795 0.4008613103288681 -2.339935612789747 0.1 0.2730155253645222 -0.4352243305395638 0.5656124342813518 0.6645423860147178 0.9831894773647901 1.351570195598672 1.076719013410492 0.1395517837014099 0.2149119341457511 -0.2713159344463927 -0.23159671045663 0.6726947798139536 1.389105787972013 0.8384696978021773 0.7184224272687486 -2.064405357380379 0.1 0.516456181168606 -0.4106248921401497 0.4968780285394356 1.445066502106914 1.247287528939665 1.683978368683142 1.461095094066438 0.1885779074396371 0.2114853240717865 -0.2606520992812267 -0.2150680873619221 0.6740508660013056 1.431958598775994 0.8211470529018853 0.6947365115061793 -2.042025753135403 -0.1 0.3112065550203639 0.4823607804194711 0.03957515322958664 1.250589062630053 -0.505533005692988 -0.6912346386457838 0.6531120775899203 0.03426610073964609 0.2080587139978219 -0.2499882641160606 -0.1985394642672142 0.6754069521886575 1.474811409579975 0.8038244080015933 0.67105059574361 -2.019646148890427 -0.1 0.3112065550203663 0.4823607804194711 0.03957515322958664 1.250589062630053 -0.505533005692988 -0.6912346386457838 0.6531120775899332 0.03426610073964609 0.2046321039238573 -0.2393244289508946 -0.1820108411725063 0.6767630383760095 1.517664220383957 0.7865017631013013 0.6473646799810407 -1.997266544645451 -0.09999999999999999 0.3112065550203664 0.4823607804194749 0.03957515322958696 1.250589062630095 -0.5055330056929921 -0.6912346386457894 0.6531120775899319 0.03426610073964581 0.2012054938498926 -0.2286605937857286 -0.1654822180777984 0.6781191245633614 1.560517031187938 0.7691791182010093 0.6236787642184715 -1.974886940400474 -0.09999999999999999 0.3112065550203563 0.4823607804194593 0.03957515322958567 1.250589062630022 -0.5055330056929757 -0.691234638645767 0.6531120775899367 0.03426610073964692 0.197778883775928 -0.2179967586205625 -0.1489535949830905 0.6794752107507134 1.60336984199192 0.7518564733007173 0.5999928484559022 -1.952507336155498 -0.1 0.3112065550203663 0.4823607804194711 0.03957515322958664 1.250589062630085 -0.505533005692988 -0.6912346386457838 0.6531120775899267 0.03426610073964609 0.1976288011424397 -0.208624023099319 -0.1485008742148197 0.6341205771893996 1.584939675043848 0.7190924957892746 0.5992528778336138 -1.946183980254482 -0.005198582784080823 0.3246540948008718 0.01568140388549139 -1.571 -0.6383866432583828 -1.134883133845464 -0.0256312036132643 0.2190292664820396 0.02886991315169558 0.1974787185089513 -0.1992512875780756 -0.1480481534465489 0.5887659436280859 1.566509508095776 0.6863285182778319 0.5985129072113253 -1.939860624353466 -0.005198582784083708 0.324654094800868 0.01568140388549139 -1.571 -0.6383866432583828 -1.134883133845464 -0.02563120361326814 0.2190292664820396 0.02886991315169558 0.1973286358754629 -0.1898785520568321 -0.147595432678278 0.5434113100667721 1.548079341147705 0.6535645407663893 0.5977729365890369 -1.93353726845245 -0.005198582784083708 0.3246540948008709 0.01568140388549523 -1.571 -0.638386643258352 -1.134883133845464 -0.02563120361326814 0.2190292664820319 0.02886991315169558 0.1971785532419746 -0.1805058165355886 -0.1471427119100072 0.4980566765054584 1.529649174199633 0.6208005632549466 0.5970329659667484 -1.927213912551434 -0.005198582784079862 0.3246540948008718 0.01568140388549139 -1.571 -0.6383866432583828 -1.134883133845464 -0.02563120361326814 0.2190292664820396 0.02886991315169558 0.1970284706084862 -0.1711330810143451 -0.1466899911417364 0.4527020429441447 1.511219007251562 0.5880365857435039 0.5962929953444599 -1.920890556650419 -0.005198582784084675 0.3246540948008713 0.0156814038854914 -1.571 -0.6383866432583452 -1.134883133845466 -0.02563120361326817 0.2190292664820014 0.02886991315169555 0.1910789401128913 -0.137125881151881 -0.1709495186610233 0.4496019761378841 1.516456905108104 0.6022480859498824 0.5654133170164313 -1.895874129866801 -0.1 0.5715946810869114 -0.4077553268656915 -0.05210607473238277 0.08803884374439558 0.2388675916007308 -0.5190271459385307 0.4204773267763008 0.05949530495594879 0.1851294096172965 -0.1031186812894169 -0.1952090461803101 0.4465019093316236 1.521694802964646 0.616459586156261 0.5345336386884026 -1.870857703083183 -0.09999999999999999 0.5715946810869171 -0.4077553268656939 -0.05210607473238232 0.0880388437443964 0.2388675916007331 -0.5190271459385356 0.420477326776301 0.05949530495594824 0.1791798791217016 -0.06911148142695278 -0.219468573699597 0.443401842525363 1.526932700821188 0.6306710863626395 0.503653960360374 -1.845841276299566 -0.1 0.5715946810869118 -0.4077553268656915 -0.05210607473238277 0.08803884374439558 0.2388675916007308 -0.5190271459385307 0.4204773267762822 0.05949530495594879 0.1732303486261068 -0.03510428156448867 -0.2437281012188839 0.4403017757191025 1.53217059867773 0.644882586569018 0.4727742820323453 -1.820824849515948 -0.09999999999999999 0.5715946810869197 -0.4077553268656977 -0.05210607473238257 0.08803884374440055 0.2388675916007342 -0.5190271459385398 0.420477326776303 0.05949530495594796 0.1672808181305119 -0.001097081702024563 -0.2679876287381707 0.4372017089128419 1.537408496534272 0.6590940867753965 0.4418946037043167 -1.79580842273233 -0.1 0.571594681086909 -0.4077553268656882 -0.05210607473238346 0.08803884374439518 0.2388675916007297 -0.5190271459385274 0.4204773267762952 0.05949530495594907 0.1613312876349171 0.03291011816043955 -0.2922471562574576 0.4341016421065814 1.542646394390814 0.673305586981775 0.411014925376288 -1.770791995948712 -0.09999999999999999 0.5715946810869198 -0.4077553268656972 -0.05210607473238163 0.08803884374439681 0.2388675916007342 -0.5190271459385398 0.4204773267763067 0.05949530495594796 0.1553817571393222 0.06691731802290365 -0.3165066837767444 0.4310015753003208 1.547884292247355 0.6875170871881535 0.3801352470482593 -1.745775569165095 -0.1 0.5715946810869089 -0.4077553268656877 -0.05210607473238346 0.08803884374438024 0.2388675916007297 -0.5190271459385293 0.4204773267762802 0.05949530495594907 0.1494322266437274 0.1009245178853678 -0.3407662112960312 0.4279015084940603 1.553122190103897 0.701728587394532 0.3492555687202306 -1.720759142381477 -0.09999999999999999 0.5715946810869202 -0.4077553268656953 -0.05210607473238257 0.08803884374439681 0.2388675916007342 -0.5190271459385389 0.420477326776303 0.05949530495594796 0.1434826961481325 0.1349317177478319 -0.3650257388153181 0.4248014416877998 1.558360087960439 0.7159400876009105 0.3183758903922019 -1.695742715597859 -0.1 0.5715946810869087 -0.4077553268656896 -0.05210607473238067 0.08803884374439518 0.2388675916007297 -0.5190271459385302 0.4204773267762952 0.05949530495594907 0.1375331656525377 0.168938917610296 -0.389285266334605 0.4217013748815393 1.563597985816981 0.7301515878072891 0.2874962120641733 -1.670726288814242 -0.09999999999999999 0.5715946810869198 -0.4077553268656972 -0.05210607473238257 0.08803884374440055 0.2388675916007342 -0.519027145938537 0.420477326776288 0.05949530495594796 0.1315836351569428 0.2029461174727601 -0.4135447938538919 0.4186013080752788 1.568835883673523 0.7443630880136676 0.2566165337361446 -1.645709862030624 -0.1 0.5715946810869087 -0.4077553268656905 -0.0521060747323816 0.08803884374439518 0.2388675916007297 -0.5190271459385293 0.4204773267762952 0.05949530495594907 0.1335894713564578 0.2374666122850497 -0.425254892717349 0.4188826186178848 1.557747603326292 0.7292287514685595 0.2997049157672437 -1.638140196366624 0.07298071132207334 1.256 -0.4260623798261999 0.01023525425792397 -0.4034380211480632 -0.5506504702212 1.567735576368203 0.2754161006579589 0.02748447039195033 0.1336800511287303 0.262366507888969 -0.4156199009698606 0.371276263339586 1.552492251194269 0.7095387569652087 0.3096887754185326 -1.62791293367073 0.002989113982959541 0.8216914688192672 0.3179527596014943 -1.571 -0.1734255468864227 -0.6497657966869127 0.3294653291663507 0.3374975799202475 0.03030321787288273 0.1337706309010028 0.2872664034928882 -0.4059849092223722 0.3236699080612871 1.547236899062247 0.689848762461858 0.3196726350698216 -1.617685670974836 0.002989113982959531 0.8216914688192617 0.317952759601495 -1.571 -0.1734255468863855 -0.6497657966869105 0.3294653291663496 0.3374975799202537 0.03030321787288284 0.1338612106732752 0.3121662990968075 -0.3963499174748839 0.2760635527829883 1.541981546930224 0.6701587679585073 0.3296564947211105 -1.607458408278941 0.002989113982955874 0.8216914688192672 0.3179527596014902 -1.571 -0.1734255468864152 -0.649765796686912 0.3294653291663504 0.3374975799202838 0.03030321787288276 0.1339517904455477 0.3370661947007267 -0.3867149257273955 0.2284571975046895 1.536726194798202 0.6504687734551565 0.3396403543723994 -1.597231145583047 0.002989113982959541 0.8216914688192645 0.3179527596014943 -1.571 -0.1734255468863861 -0.6497657966869127 0.3294653291663489 0.3374975799202475 0.03030321787288273 0.1340423702178202 0.361966090304646 -0.3770799339799071 0.1808508422263907 1.53147084266618 0.6307787789518058 0.3496242140236884 -1.587003882887153 0.002989113982959538 0.8216914688192672 0.3179527596014957 -1.571 -0.1734255468863859 -0.649765796686912 0.3294653291663504 0.3374975799202472 0.03030321787288276 0.1341329499900927 0.3868659859085652 -0.3674449422324187 0.1332444869480919 1.526215490534157 0.611088784448455 0.3596080736749773 -1.576776620191259 0.002989113982959539 0.821691468819264 0.3179527596014941 -1.571 -0.1734255468864226 -0.6497657966869123 0.3294653291663505 0.3374975799202546 0.03030321787288275 0.1342235297623652 0.4117658815124845 -0.3578099504849303 0.08563813166979303 1.520960138402135 0.5913987899451043 0.3695919333262663 -1.566549357495365 0.002989113982959534 0.8216914688192662 0.3179527596014935 -1.571 -0.1734255468863856 -0.6497657966869111 0.32946532916635 0.3374975799202468 0.0303032178728828 0.1343141095346376 0.4366657771164038 -0.3481749587374419 0.03803177639149419 1.515704786270112 0.5717087954417536 0.3795757929775552 -1.556322094799471 0.002989113982955872 0.8216914688192668 0.3179527596014937 -1.571 -0.1734255468864151 -0.6497657966869116 0.3294653291663502 0.3374975799202543 0.03030321787288278 0.1344046893069101 0.461565672720323 -0.3385399669899535 -0.009574578886804637 1.51044943413809 0.5520188009384028 0.3895596526288442 -1.546094832103577 0.002989113982959537 0.8216914688192635 0.3179527596014957 -1.571 -0.1734255468863858 -0.6497657966869119 0.3294653291663503 0.3374975799202471 0.03030321787288277 0.1344952690791826 0.4864655683242423 -0.3289049752424651 -0.05718093416510348 1.505194082006067 0.5323288064350521 0.3995435122801331 -1.535867569407682 0.002989113982959536 0.8216914688192668 0.3179527596014937 -1.571 -0.1734255468864224 -0.6497657966869116 0.3294653291663484 0.3374975799202836 0.03030321787288278 0.1345858488514551 0.5113654639281615 -0.3192699834949768 -0.1047872894434023 1.499938729874045 0.5126388119317014 0.4095273719314221 -1.525640306711788 0.002989113982959537 0.8216914688192635 0.3179527596014902 -1.571 -0.1734255468863858 -0.6497657966869119 0.3294653291663521 0.3374975799202471 0.03030321787288277 0.1346764286237275 0.5362653595320808 -0.3096349917474884 -0.1523936447217012 1.494683377742023 0.4929488174283507 0.419511231582711 -1.515413044015894 0.00298911398295587 0.8216914688192642 0.3179527596014953 -1.571 -0.1734255468863856 -0.6497657966869074 0.3294653291663481 0.337497579920254 0.03030321787288281 0.134767008396 0.561165255136 -0.3 -0.2 1.48942802561 0.473258822925 0.429495091234 -1.50518578132 0.002989113982959538 0.8216914688192655 0.3179527596014939 -1.571 -0.1734255468864152 -0.649765796686912 0.3294653291663522 0.3374975799202472 0.03030321787288276 </data>\n<description><![CDATA[{"planning_method": "PlanToConfigurations", "planner": "CBiRRTPlanner", "deterministic_endpoint": false, "deterministic": false, "smooth": true, "constrained": false}]]></description>\n</trajectory>\n'
p440
ssg337
g338
((lp441
(lp442
g432
a(dp443
g342
VManipPose
p444
sg344
g435
saa(lp445
g425
a(dp446
g342
VManipPose
p447
sg344
g428
saa(lp448
g404
ag407
aa(lp449
g418
ag421
aa(lp450
g439
a(dp451
g342
VManipTrajectory
p452
sg344
g440
saa(lp453
g413
a(dp454
g342
VGripperCloseTrajectory
p455
sg344
g329
saatp456
Rp457
sg367
(lp458
Vtraj1
p459
aVgripper_close_traj
p460
asg373
g34
((lp461
g178
ag174
ag175
ag176
ag179
ag177
atp462
Rp463
sg377
I01
sbssg23
(dp464
g47
g0
(g253
g2
Ntp465
Rp466
(dp467
g257
(dp468
g304
g0
(g27
g2
Ntp469
Rp470
(dp471
g31
(dp472
sg33
g34
((lp473
tp474
Rp475
sg38
g34
((lp476
tp477
Rp478
sbsg261
g0
(g27
g2
Ntp479
Rp480
(dp481
g31
(dp482
sg33
g34
((lp483
g54
ag55
ag56
ag57
ag58
ag59
atp484
Rp485
sg38
g34
((lp486
tp487
Rp488
sbsVcan
p489
S'can1'
p490
sVrobot
p491
S'fetch'
p492
ssg337
g338
((lp493
tp494
Rp495
sg367
Nsg373
g34
((lp496
g54
ag55
ag56
ag57
ag59
ag58
atp497
Rp498
sg377
I01
sbsg19
g0
(g253
g2
Ntp499
Rp500
(dp501
g257
(dp502
g304
g0
(g27
g2
Ntp503
Rp504
(dp505
g31
(dp506
sg33
g34
((lp507
tp508
Rp509
sg38
g34
((lp510
tp511
Rp512
sbsg261
g306
sg489
g490
sg491
g492
ssg337
g338
((lp513
tp514
Rp515
sg367
Nsg373
g34
((lp516
g138
ag134
ag135
ag136
ag133
ag137
atp517
Rp518
sg377
I01
sbssg47
(dp519
g67
g0
(g253
g2
Ntp520
Rp521
(dp522
g257
(dp523
g259
g260
sg261
g0
(g27
g2
Ntp524
Rp525
(dp526
g31
(dp527
sg33
g34
((lp528
g74
ag75
ag76
ag77
ag78
ag79
ag80
atp529
Rp530
sg38
g34
((lp531
tp532
Rp533
sbsg272
g273
(g274
(I0
tp534
g276
tp535
Rp536
(I1
(I4
I4
tp537
g283
I00
S'\x00\x00\x00\x00\x00\x00\xf0?\x00\x00\x00\x00\x00\x00\x00\x00\x00\x00\x00\x00\x00\x00\x00\x00\x08\xaa\xa3p=\n\xdf?\x00\x00\x00\x00\x00\x00\x00\x00\x00\x00\x00\x00\x00\x00\xb0<\x00\x00\x00\x00\x00\x00\xf0\xbf\x00\x00\x00\x00\x00\x00\x00\x00\x00\x00\x00\x00\x00\x00\x00\x00\x00\x00\x00\x00\x00\x00\xf0?\x00\x00\x00\x00\x00\x00\xb0<433333\xeb?\x00\x00\x00\x00\x00\x00\x00\x00\x00\x00\x00\x00\x00\x00\x00\x00\x00\x00\x00\x00\x00\x00\x00\x00\x00\x00\x00\x00\x00\x00\xf0?'
p538
tp539
bsg288
g273
(g274
(I0
tp540
g276
tp541
Rp542
(I1
(I4
I4
tp543
g283
I00
S'\x00\x00\x00\x00\x00\x00\xf0?\x00\x00\x00\x00\x00\x00\x00\x00\x00\x00\x00\x00\x00\x00\x00\x00\xaa\xed\xe0z\x14\xae\xc7?\x00\x00\x00\x00\x00\x00\x00\x00\x00\x00\x00\x00\x00\x00\xb0<\x00\x00\x00\x00\x00\x00\xf0\xbf\x00\x00\x00\x00\x00\x00\x00\x00\x00\x00\x00\x00\x00\x00\x00\x00\x00\x00\x00\x00\x00\x00\xf0?\x00\x00\x00\x00\x00\x00\xb0<433333\xeb?\x00\x00\x00\x00\x00\x00\x00\x00\x00\x00\x00\x00\x00\x00\x00\x00\x00\x00\x00\x00\x00\x00\x00\x00\x00\x00\x00\x00\x00\x00\xf0?'
p544
tp545
bsg295
g273
(g274
(I0
tp546
g276
tp547
Rp548
(I1
(I4
I4
tp549
g283
I00
S'\x00\x00\x00\x00\x00\x00\xf0?\x00\x00\x00\x00\x00\x00\x00\x00\x00\x00\x00\x00\x00\x00\x00\x00\x08\xaa\xa3p=\n\xdf?\x00\x00\x00\x00\x00\x00\x00\x00\x00\x00\x00\x00\x00\x00\xb0<\x00\x00\x00\x00\x00\x00\xf0\xbf\x00\x00\x00\x00\x00\x00\x00\x00\x00\x00\x00\x00\x00\x00\x00\x00\x00\x00\x00\x00\x00\x00\xf0?\x00\x00\x00\x00\x00\x00\xb0<433333\xeb?\x00\x00\x00\x00\x00\x00\x00\x00\x00\x00\x00\x00\x00\x00\x00\x00\x00\x00\x00\x00\x00\x00\x00\x00\x00\x00\x00\x00\x00\x00\xf0?'
p550
tp551
bsg302
S'fetch'
p552
sg304
g480
sg315
S'top_drawer'
p553
sg317
S'<trajectory>\n<configuration>\n<group name="joint_values fetch 11 10 9 12 1 2 13 14" offset="0" dof="8" interpolation="linear"/>\n<group name="joint_velocities fetch 11 10 9 12 1 2 13 14" offset="8" dof="8" interpolation="next"/>\n<group name="deltatime" offset="16" dof="1" interpolation=""/>\n</configuration>\n<data count="10">\n0 1.32000492 1.39998343 -0.1998453339999998 1.71996798 2.706226490104954e-06 1.660006469999999 -1.347754262645325e-06 0 0 0 0 0 0 0 0 0 0.001482879231336499 1.31998557084987 1.399019476829183 -0.1990467614495982 1.714124903387078 -0.008989313757918347 1.648817349434598 0.009719525739964577 0.09999999999999999 -0.001304836545111992 -0.06500550755900973 0.05385283801444926 -0.3940359059217211 -0.6063892321361913 -0.7545537309411277 0.6555404707816922 0.01482879231336499 0.005639689454593131 1.31497895319211 1.39472490922676 -0.2122503443575922 1.705527030166041 -0.035442105286812 1.638541560814059 0.02287379402850537 0.1 -0.1204437390417313 -0.1033140165599828 -0.3176373757484083 -0.2068382427692553 -0.636372365062395 -0.2472036987170565 0.3164510184983896 0.04156810223256632 0.009507139901034375 1.307151965086583 1.389710351574689 -0.23441580163352 1.70250679366063 -0.06085098999281142 1.642475702700794 0.02609319470508174 0.1 -0.2023810831947205 -0.1296605534192632 -0.5731284106386948 -0.07809373506494149 -0.6569931549964707 0.1017244290836251 0.08324348873141472 0.03867450446441244 0.01448529066517325 1.296735840255844 1.383145913873499 -0.2640111816101932 1.699155422645806 -0.09364299047078103 1.648993070468763 0.02926581378644012 0.1 -0.2092368295828591 -0.1318649838505944 -0.5945054977014678 -0.06732160542356247 -0.6587185087722428 0.1309194533624555 0.06373087581462956 0.04978150764138876 0.04481937914538074 1.232913184073761 1.34303250553099 -0.4454483669221861 1.67928800669143 -0.2935479757004723 1.690207708757376 0.04759451692630189 0.1 -0.2103991231637868 -0.1322387134483449 -0.5981296765530889 -0.06549534517030083 -0.6590110177865608 0.1358690514650046 0.06042279184298206 0.3033408848020749 0.2073315722844851 0.890824740496952 1.128075669892278 -1.417994062745831 1.573108107291459 -1.364562560751377 1.911710786053962 0.1453215398019294 0.09999999999999999 -0.2105001704604365 -0.1322712046933713 -0.5984447548444453 -0.06533657404345357 -0.659036447889271 0.1362993588468697 0.06013519415861728 1.625121931391044 0.2963302585608866 0.703289070275898 1.010293885936296 -1.951204716375799 1.515263113140261 -1.95114498431517 2.033838519484978 0.1982909539415882 0.1 -0.2107173465893957 -0.1323410365746185 -0.5991219375688157 -0.06499533484297677 -0.6590911035945572 0.1372241979524579 0.05951707419045797 0.8899868627640153 0.297819500664792 0.7000124082418557 1.00827845082997 -1.96055917319962 1.514512905055906 -1.960995319947846 2.036472219397577 0.1987829119549111 0.09999999999999999 -0.2200221189992948 -0.1353329388848354 -0.6281353984882473 -0.05037515944436045 -0.6614327923475121 0.1768483382045015 0.03303411930355363 0.01489242103905386 0.303787943625 0.686254841842 1 -2 1.51248938258 -2.00063001877 2.04969171897 0.198973767041 0.1 -0.2305051165199756 -0.1387036934953224 -0.6608227147906873 -0.03390369128760955 -0.6640709995287061 0.2214899205799334 0.003197736618433775 0.05968442960207987 </data>\n<description><![CDATA[{"planning_method": "PlanToConfigurations", "planner": "CBiRRTPlanner", "deterministic_endpoint": false, "deterministic": false, "smooth": true, "constrained": false}]]></description>\n</trajectory>\n'
p554
sg319
S'<trajectory>\n<configuration>\n<group name="joint_values fetch 11 10 9 12 1 2 13 14" offset="0" dof="8" interpolation="linear"/>\n<group name="joint_velocities fetch 11 10 9 12 1 2 13 14" offset="8" dof="8" interpolation="next"/>\n<group name="deltatime" offset="16" dof="1" interpolation=""/>\n</configuration>\n<data count="23">\n0.303787943625 0.6862548418419999 0.9999999999999998 -2 1.51248938258 -2.00063001877 2.04969171897 0.1989737670409996 0 0 0 0 0 0 0 0 0 0.31749225631155 0.6261205808948829 1.033349371896604 -2.019125775517539 1.490088229822616 -1.969846669492881 2.078353139517946 0.1746435047709516 0.1 -0.4387980800097729 0.2433494671304078 -0.1395602680337978 -0.1634606073996668 0.2246252692944693 0.2091416125967079 -0.1775372674758565 0.1370431268654998 0.3287980330792127 0.562665081707982 1.060082209116158 -2.043369525019844 1.467568343204209 -1.945339381237829 2.107658410527814 0.1534683947622312 0.1 -0.5612661605737623 0.2364529016353513 -0.2144368317234777 -0.199189202840262 0.2167678414202264 0.2592061705453845 -0.1872946056151261 0.113057767676627 0.3376560858484579 0.4965903248258847 1.079785536893021 -2.071437941993405 1.445359941644281 -1.925986330214911 2.137635299662297 0.1357848683850909 0.1 -0.7459286888818947 0.2224340754129633 -0.316868929377047 -0.2507142612317075 0.2184797441048332 0.3384139823434038 -0.199632208542906 0.08858052769245228 0.336267897918977 0.485335785208707 1.082343244733106 -2.08252129117278 1.448548109262184 -1.917043181355072 2.13896422244885 0.1430140351706824 -0.1 -0.8107360234277544 0.1842479527279512 -0.7984040880919678 0.2296639777796509 0.6442318557821716 0.0957307550606539 0.5207628327595858 0.01388187929480922 0.3321151501628402 0.4516679631876158 1.089994597455743 -2.115676999025923 1.458085474946082 -1.890289857419758 2.142939679231564 0.1646400020229019 -0.1 -0.8107360234278169 0.1842479527279273 -0.798404088091957 0.2296639777796331 0.6442318557822074 0.09573075506065003 0.520762832759622 0.04152747756136776 0.3279624024067033 0.4180001411665247 1.09764595017838 -2.148832706879067 1.467622840629981 -1.863536533484444 2.146915136014279 0.1862659688751214 -0.1 -0.8107360234277939 0.1842479527279224 -0.7984040880919571 0.229663977779643 0.6442318557821902 0.09573075506066886 0.5207628327596073 0.04152747756136888 0.3238096546505665 0.3843323191454335 1.105297302901018 -2.181988414732211 1.47716020631388 -1.83678320954913 2.150890592796994 0.2078919357273409 -0.09999999999999999 -0.810736023427806 0.1842479527279516 -0.7984040880919676 0.2296639777796514 0.6442318557821988 0.09573075506068082 0.520762832759615 0.04152747756136832 0.3191069224359324 0.3498654100690164 1.110847759100391 -2.215838242988462 1.48622621957975 -1.811126713293484 2.153728788337523 0.2295757345825775 -0.1 -0.7329124326739704 0.1180262014941196 -0.7197906814875924 0.1927818309037061 0.5455657495403955 0.06035205516692638 0.4610893809296734 0.04702732214634076 0.3142280788876856 0.3150401498071629 1.11524689618806 -2.250007999786163 1.494970209826065 -1.786016282252425 2.155998434175264 0.2513119290288499 -0.09999999999999999 -0.7138015375460821 0.09016761952225036 -0.7003659055634125 0.1792225997789423 0.5146799808754349 0.04652016026537131 0.4455193988354731 0.04878843548246803 0.3091771516640363 0.2799094809118302 1.118497781350429 -2.284460061818237 1.503356065791464 -1.761420286601882 2.157704886361573 0.2730918487493133 -0.1 -0.6955291046531987 0.06436214616492503 -0.6820938118206026 0.1660260699487979 0.4869600087560239 0.03378492919713684 0.4312063658032151 0.05050927223649304 0.3039502584892034 0.2444827933972055 1.120596071014424 -2.31926132249056 1.511446812853712 -1.737505902871008 2.158884836212609 0.2948937593784128 -0.1 -0.677777148482799 0.04014410843707384 -0.6658115922454351 0.154790748378105 0.4575257792912195 0.02257459281390044 0.4171103158196133 0.05226893174832936 0.2979906449600091 0.2088876251229127 1.121597302834705 -2.354185403787746 1.518932671663032 -1.713858057773705 2.159453241434147 0.3166191783035578 -0.09999999999999999 -0.5972730966517081 0.01680028101446983 -0.5860125178604946 0.1256098029284818 0.3968016546955542 0.009537618819635964 0.3645440902957718 0.05959613529194274 0.2924394944402723 0.1731430362151782 1.121422336305338 -2.389285049159039 1.526007504124623 -1.690580472418066 2.159467874724039 0.3384549640890834 -0.1 -0.6439131632379009 -0.0031518966878131 -0.6322949674395999 0.127448038680213 0.4193290250890672 0.0002636082347216316 0.3933560386786422 0.05551150519736814 0.2867244695610048 0.1372901486441673 1.120111410200363 -2.424540052975455 1.53256296216009 -1.667661176480507 2.158902724166325 0.3602741701475098 -0.09999999999999999 -0.6273443830677806 -0.02293823968694382 -0.6168827706124442 0.1147056779971042 0.401035803373381 -0.009888855598231685 0.3817867204319673 0.05715024879267505 0.2744534558585373 0.06832507365007373 1.111746482200195 -2.489243064282925 1.543842277874893 -1.624723692116997 2.15954104405508 0.4047227375786417 -0.1 -0.5620161191754353 -0.06816819052598769 -0.5272833433024302 0.09191836948674377 0.3499098395992831 0.005201851324040187 0.362224087665994 0.1227101370246747 0.2615004674906805 0.0001309031044994663 1.098406152450817 -2.552372357705398 1.552084275469874 -1.582869361025489 2.158963290770189 0.4491314059793014 -0.1 -0.5264744212601935 -0.1029903630770049 -0.4873724242594865 0.06363008566759587 0.3231249029403186 -0.004460386039756596 0.3428449647253684 0.129529883678568 0.2479307933663237 -0.06696225571551481 1.080231200594171 -2.613688908266288 1.556707333051813 -1.541730461732758 2.157083497477617 0.4930163155745739 -0.09999999999999999 -0.4944345619883812 -0.1339380127340203 -0.4518645768421998 0.03406903909093077 0.3031679236783499 -0.01385289930579611 0.3234042998608313 0.1356967412435681 0.2337304117685048 -0.1280258707258406 1.054749174956631 -2.663179980263342 1.556176589928216 -1.504301714603262 2.159575469903771 0.5363801297212657 -0.1 -0.4300139020186947 -0.179446062501968 -0.3485193102462494 -0.003737527192075882 0.2635756431731727 0.01754863000679217 0.3053707666092026 0.1420038159781892 0.2262389159023098 -0.1633524507654377 1.042712902312011 -2.69756581843712 1.55513842481813 -1.482362231300465 2.154621894193159 0.5580801396559752 -0.1 -0.4715557569617914 -0.1606658117363853 -0.4589982933707838 -0.01385791474264588 0.2928585117666272 -0.06612265159171189 0.2896619089470474 0.07491495866194992 0.2185420086616082 -0.1983761126950271 1.029171720128774 -2.731839000532924 1.553343160379189 -1.460198322105176 2.148900248447138 0.5789430725620301 -0.1 -0.4550355205579545 -0.1759301724675928 -0.4452851128900946 -0.02332449102994923 0.2879586371794273 -0.07433694556906029 0.2710560521728876 0.076969072407016 0.2106450120861639 -0.2330839646758337 1.01439559041352 -2.766013679502271 1.550441712770048 -1.438007208198949 2.14242676357293 0.599221973664671 -0.09999999999999999 -0.439506990401017 -0.1871107524751924 -0.432755398116966 -0.0367411531893398 0.2810070093639172 -0.08197401141513626 0.2567925781517759 0.07896996575444293 0.2027041361244947 -0.2676179122161897 0.9999999999999998 -2.8 1.548080246795775 -1.415328255061746 2.136286241976654 0.6189192976243786 -0.1 -0.4348883889768859 -0.1812846653569214 -0.4279920837673533 -0.02973810428058385 0.2855976248297388 -0.07732801300406465 0.2480497624542561 0.07940875961669203 </data>\n<description><![CDATA[{"deterministic_endpoint": false, "planning_method": "PlanToTSR", "deterministic": false, "constrained": true, "planner": "CBiRRTPlanner"}]]></description>\n</trajectory>\n'
p555
sg321
g273
(g274
(I0
tp556
g276
tp557
Rp558
(I1
(I4
I4
tp559
g283
I00
S'\x00\x00\x00\x00\x00\x00\xf0?\x00\x00\x00\x00\x00\x00\x00\x00\x00\x00\x00\x00\x00\x00\x00\x00\xaa\xed\xe0z\x14\xae\xc7?\x00\x00\x00\x00\x00\x00\x00\x00\x00\x00\x00\x00\x00\x00\xb0<\x00\x00\x00\x00\x00\x00\xf0\xbf\x00\x00\x00\x00\x00\x00\x00\x00\x00\x00\x00\x00\x00\x00\x00\x00\x00\x00\x00\x00\x00\x00\xf0?\x00\x00\x00\x00\x00\x00\xb0<433333\xeb?\x00\x00\x00\x00\x00\x00\x00\x00\x00\x00\x00\x00\x00\x00\x00\x00\x00\x00\x00\x00\x00\x00\x00\x00\x00\x00\x00\x00\x00\x00\xf0?'
p560
tp561
bsg328
g329
sg330
g273
(g274
(I0
tp562
g276
tp563
Rp564
(I1
(I8
tp565
g283
I00
S'\x00\x00\x00\x00\x00\x00\x00\x00uX\x9fz\xbd\x1e\xf5?\xa5\xabl\x06Uf\xf6?\x9c\xe3\xe4*\x88\x94\xc9\xbfaF\x04%\xfd\x84\xfb?\xaeU#\xbf\x93\xb3\xc6>A\xc6\xbc\xf1b\x8f\xfa?q\x95\xb0{\x8f\x9c\xb6\xbe'
p566
tp567
bssg337
g338
((lp568
(lp569
g330
a(dp570
g342
g343
sg344
g564
saa(lp571
g295
a(dp572
g342
g347
sg344
g548
saa(lp573
g272
ag536
aa(lp574
g321
ag558
aa(lp575
g317
a(dp576
g342
g352
sg344
g554
saa(lp577
g328
a(dp578
g342
g355
sg344
g329
saa(lp579
g288
a(dp580
g342
g358
sg344
g542
saa(lp581
g319
a(dp582
g342
g361
sg344
g555
saa(lp583
g259
a(dp584
g342
g364
sg344
g260
saatp585
Rp586
sg367
(lp587
g369
ag370
ag371
ag372
asg373
g34
((lp588
g74
ag80
ag75
ag76
ag77
ag78
ag79
atp589
Rp590
sg377
I01
sbssg67
(dp591
g88
g0
(g253
g2
Ntp592
Rp593
(dp594
g257
(dp595
g261
g0
(g27
g2
Ntp596
Rp597
(dp598
g31
(dp599
sg33
g34
((lp600
g95
ag96
ag97
ag98
ag99
ag100
atp601
Rp602
sg38
g34
((lp603
tp604
Rp605
sbsg404
g273
(g274
(I0
tp606
g276
tp607
Rp608
(I1
(I8
tp609
g283
I00
S'\xe6\x95\xb5\x895\xf2\xc9?\x99\xb52\xe1\xa6 \xd1\xbf\xfb\xff\xff\xff\xff\xff\xef?ffffff\x06\xc0\xb8$\xf9\xca\xef\xc4\xf8?\xe8\x84\x89=/\xa5\xf6\xbf\xccy\xc1=\x1d\x17\x01@\xb0\x1e\xc5\xd7/\xce\xe3?'
p610
tp611
bsg411
S'fetch'
p612
sg413
g329
sg304
g525
sg414
S'top_drawer'
p613
sg416
S'can1'
p614
sg418
g273
(g274
(I0
tp615
g276
tp616
Rp617
(I1
(I4
I4
tp618
g283
I00
S'\x92\xb3d\xe3\xdb\xc7\x88\xbdz\xdf\x18=\xcd\x8e\x83\xbd\x00\x00\x00\x00\x00\x00\xf0?B\xf7\xcc\xcc\xcc\xcc\xe4?\x9b\xe4\x01\x00\x00,J\xbd\x00\x00\x00\x00\x00\x00\xf0?h\xda\x18=\xcd\x8e\x83=\xb5\x9d)\x9a\xc1G{=\x00\x00\x00\x00\x00\x00\xf0\xbfK\x1b\xfe\xff\xff+J\xbd\x92\xb7d\xe3\xdb\xc7\x88\xbd\x16\xc5z\x14\xaeG\xf1?\x00\x00\x00\x00\x00\x00\x00\x00\x00\x00\x00\x00\x00\x00\x00\x00\x00\x00\x00\x00\x00\x00\x00\x00\x00\x00\x00\x00\x00\x00\xf0?'
p619
tp620
bsg425
g273
(g274
(I0
tp621
g276
tp622
Rp623
(I1
(I4
I4
tp624
g283
I00
S'\x92\xb3d\xe3\xdb\xc7\x88\xbdz\xdf\x18=\xcd\x8e\x83\xbd\x00\x00\x00\x00\x00\x00\xf0?B\xf7\xcc\xcc\xcc\xcc\xe4?\x9b\xe4\x01\x00\x00,J\xbd\x00\x00\x00\x00\x00\x00\xf0?h\xda\x18=\xcd\x8e\x83=\xb5\x9d)\x9a\xc1G{=\x00\x00\x00\x00\x00\x00\xf0\xbfK\x1b\xfe\xff\xff+J\xbd\x92\xb7d\xe3\xdb\xc7\x88\xbd\x16\xc5z\x14\xaeG\xf1?\x00\x00\x00\x00\x00\x00\x00\x00\x00\x00\x00\x00\x00\x00\x00\x00\x00\x00\x00\x00\x00\x00\x00\x00\x00\x00\x00\x00\x00\x00\xf0?'
p625
tp626
bsg432
g273
(g274
(I0
tp627
g276
tp628
Rp629
(I1
(I8
tp630
g283
I00
S'\xe0[\x94\xcd\x8b\xe9\x8f?\x9ew\xa6\xa5\xff\xbc\xe2?\xca\xcc\xcc\xcc\xcc\xcc\xec\xbf\xcd\xcc\xcc\xcc\xcc\xcc\x08\xc0n@\xbb\xf7]\x85\xdc\xbfv<\xa0F\xadv\x9d\xbf"u\xdbU\x0c4\x00\xc07KUH\x19i\x01@'
p631
tp632
bsg439
S'<trajectory>\n<configuration>\n<group name="joint_values fetch 11 10 9 12 1 2 13 14" offset="0" dof="8" interpolation="linear"/>\n<group name="joint_velocities fetch 11 10 9 12 1 2 13 14" offset="8" dof="8" interpolation="next"/>\n<group name="deltatime" offset="16" dof="1" interpolation=""/>\n</configuration>\n<data count="40">\n0.2027041361244947 -0.2676179122161897 0.9999999999999994 -2.8 1.548080246795775 -1.415328255061747 2.136286241976654 0.6189192976243785 0 0 0 0 0 0 0 0 0 0.2015721217473617 -0.2710098594902188 0.975581381463074 -2.770972969368131 1.553134234506505 -1.391292736213126 2.097274140392195 0.6236078870120336 -0.06126684499803626 -0.183578859135845 -1.321583671717099 1.571 0.2735317571491269 1.30084956294934 -2.111411682664407 0.2537556810898656 0.01847678588915897 0.2037031253870749 -0.2664229821128889 0.9647715684389755 -2.71330574904063 1.550529173851352 -1.395716073370173 2.094415452261855 0.6137928591950588 0.05805389437841387 0.1249580666253955 -0.2944864719404578 1.571 -0.07096839878882547 -0.1205028200467451 -0.07787784858119527 -0.2673860229936226 0.03670733311744179 0.2034956531577398 -0.2663859707553091 0.9624047661846057 -2.717236614690195 1.503582144615487 -1.401554290181276 2.086377080580447 0.5780860184096834 -0.006721730127657206 0.001199101962256464 -0.076680170981859 -0.1273530349055759 -1.521 -0.189147810079194 -0.2604289030940794 -1.156837945201988 0.03086589693350765 0.2032881809284047 -0.2663489593977293 0.9600379639302359 -2.721167480339759 1.456635115379622 -1.407392506992379 2.07833870889904 0.5423791776243081 -0.006721730127656337 0.001199101962258268 -0.07668017098185935 -0.1273530349055477 -1.521 -0.1891478100791876 -0.2604289030940374 -1.156837945201993 0.03086589693350751 0.2030807086990696 -0.2663119480401496 0.9576711616758661 -2.725098345989324 1.409688086143756 -1.413230723803482 2.070300337217633 0.5066723368389328 -0.006721730127656179 0.001199101962252845 -0.07668017098185755 -0.1273530349055735 -1.521 -0.1891478100791904 -0.2604289030940313 -1.156837945201966 0.03086589693350824 0.2028732364697344 -0.2662749366825698 0.9553043594214963 -2.729029211638888 1.362741056907891 -1.419068940614586 2.062261965536225 0.4709654960535574 -0.006721730127659934 0.001199101962258268 -0.07668017098185935 -0.1273530349055477 -1.521 -0.1891478100792236 -0.2604289030940662 -1.156837945201993 0.03086589693350751 0.2026657642403993 -0.26623792532499 0.9529375571671265 -2.732960077288453 1.315794027672026 -1.424907157425689 2.054223593854818 0.4352586552681821 -0.006721730127656306 0.001199101962256464 -0.076680170981859 -0.1273530349055759 -1.521 -0.189147810079194 -0.2604289030940363 -1.156837945201988 0.03086589693350765 0.2024582920110642 -0.2662009139674102 0.9505707549127567 -2.736890942938017 1.26884699843616 -1.430745374236792 2.04618522217341 0.3995518144828067 -0.006721730127657079 0.00119910196225824 -0.07668017098185755 -0.1273530349055447 -1.521 -0.1891478100791832 -0.2604289030940745 -1.156837945201968 0.03086589693350824 0.2022508197817291 -0.2661639026098305 0.9482039526583869 -2.740821808587582 1.221899969200295 -1.436583591047896 2.038146850492003 0.3638449736974314 -0.006721730127656337 0.001199101962252873 -0.07668017098185935 -0.1273530349055909 -1.521 -0.1891478100792236 -0.2604289030940374 -1.156837945201992 0.03086589693350751 0.2020433475523939 -0.2661268912522507 0.9458371504040171 -2.744752674237146 1.17495293996443 -1.442421807858999 2.030108478810595 0.3281381329120561 -0.006721730127659934 0.001199101962258268 -0.07668017098185935 -0.1273530349055477 -1.521 -0.1891478100791948 -0.2604289030940662 -1.156837945201992 0.03086589693350751 0.2018358753230589 -0.2660898798946709 0.9434703481496473 -2.748683539886711 1.128005910728564 -1.448260024670102 2.022070107129188 0.2924312921266807 -0.006721730127652582 0.001199101962256442 -0.07668017098185755 -0.1273530349055735 -1.521 -0.1891478100791904 -0.2604289030940313 -1.15683794520197 0.03086589693350824 0.2016284030937237 -0.2660528685370911 0.9411035458952774 -2.752614405536275 1.081058881492699 -1.454098241481205 2.014031735447781 0.2567244513413054 -0.006721730127659903 0.001199101962258263 -0.076680170981859 -0.1273530349055471 -1.521 -0.1891478100791868 -0.2604289030940363 -1.156837945201986 0.03086589693350765 0.2014209308643886 -0.2660158571795114 0.9387367436409076 -2.75654527118584 1.034111852256834 -1.459936458292308 2.005993363766373 0.22101761055593 -0.006721730127657237 0.001199101962254671 -0.07668017098185935 -0.1273530349055765 -1.521 -0.1891478100791948 -0.2604289030940662 -1.156837945201995 0.03086589693350751 0.2017827545237549 -0.2588845108021962 0.9239823255303331 -2.729990584488775 1.003313974555263 -1.41917987142495 2.006910451567505 0.2172072104335089 0.01394682461302333 0.2748842830049362 -0.5687225705908364 1.023574739878439 -1.187132426634043 1.571 0.03534998993579191 -0.146875365491359 0.02594308521155828 0.2021445781831212 -0.2517531644248809 0.9092279074197585 -2.703435897791711 0.9725160968536931 -1.378423284557591 2.007827539368636 0.2133968103110878 0.01394682461302196 0.2748842830049366 -0.5687225705908283 1.023574739878383 -1.187132426633979 1.571 0.03534998993573978 -0.1468753654913568 0.02594308521155885 0.2025064018424874 -0.2446218180475657 0.8944734893091838 -2.676881211094646 0.9417182191521229 -1.337666697690232 2.008744627169768 0.2095864101886667 0.01394682461301768 0.2748842830049313 -0.5687225705908283 1.023574739878417 -1.187132426633987 1.571 0.03534998993580826 -0.1468753654913558 0.02594308521155885 0.2028682255018537 -0.2374904716702504 0.8797190711986093 -2.650326524397582 0.9109203414505527 -1.296910110822874 2.009661714970899 0.2057760100662457 0.01394682461302333 0.2748842830049416 -0.5687225705908364 1.023574739878405 -1.187132426634017 1.571 0.03534998993574055 -0.1468753654913547 0.02594308521155828 0.2008359125982437 -0.2492033141881727 0.8722184226999761 -2.634124589746677 0.9039707914533452 -1.257640970151735 1.9703753513737 0.2079978766633276 -0.08130464576012095 -0.4685836074121115 -0.3000707066659366 0.6481740853391891 -0.2780234774436232 1.571 -1.571689019835367 0.0888879248274731 0.02499627031899361 0.1988035996946337 -0.260916156706095 0.8647177742013429 -2.617922655095773 0.8970212414561378 -1.218371829480596 1.931088987776501 0.2102197432604096 -0.08130464576012095 -0.4685836074121115 -0.3000707066659366 0.6481740853391713 -0.2780234774436232 1.571 -1.571689019835367 0.08888792482747643 0.02499627031899361 0.1967712867910237 -0.2726289992240173 0.8572171257027097 -2.601720720444868 0.8900716914589304 -1.179102688809457 1.891802624179302 0.2124416098574916 -0.08130464576012049 -0.4685836074121066 -0.3000707066659349 0.6481740853391854 -0.2780234774436216 1.571 -1.571689019835358 0.08888792482747702 0.02499627031899375 0.1870520143070725 -0.2560552189790496 0.7480439090905703 -2.610924752179882 0.8299752546351336 -1.047608930141593 1.629443159673377 0.3187659442501795 -0.08401949605711141 0.1432741664813768 -0.9437618564385374 -0.07956543139894882 -0.5195113466672486 1.136714641571391 -2.268 0.9191343291416511 0.1156787762371803 0.1602203389597193 -0.1832470008386419 0.4193335928562613 -2.668642082300883 0.6540579980689514 -0.7055833337432039 0.8773986266272367 0.6479583989207039 -0.08091839912898251 0.2195734846626609 -0.9913176207793442 -0.174062703686191 -0.530527542399703 1.031473561132788 -2.268 0.9927716436799662 0.3315893002848944 0.08378113274961009 0.09482022075610647 -0.5884526346185744 -2.917439537509748 0.1267545862152857 0.2139932354687903 -1.337543710685137 1.67891555780224 -0.07827026318657533 0.2847281610690291 -1.031927163705021 -0.2547572543574196 -0.5399346601208844 0.9416044940941821 -2.268 1.055653141372757 0.9766059688326162 0.07233056586689419 0.2164057074835809 -0.8201353491813069 -3.050165227381227 0.01818666615554235 0.2897444963658665 -1.751352058580825 1.938730795407655 -0.0627582450234814 0.6663855026129721 -1.269806177909037 -0.7274427066522002 -0.5950388481712486 0.4151773655322119 -2.268 1.42399485627975 0.1824551798481872 0.06759159713705211 0.2511013600144297 -0.822007124760228 -3.054679969816014 -0.01399401871495164 0.2792749296285236 -1.7768948631593 1.962204703382894 -0.09999999999999999 0.7321350806213258 -0.03949752964467049 -0.09526845801612478 -0.679065144866789 -0.2209250014969347 -0.5389950015417396 0.4953378955092046 0.04738968729842086 0.06285262840721002 0.2857970125452786 -0.8238789003391489 -3.059194712250801 -0.04617470358544565 0.2688053628911808 -1.802437667737775 1.985678611358133 -0.09999999999999999 0.7321350806213294 -0.03949752964466814 -0.09526845801613415 -0.6790651448667895 -0.2209250014969335 -0.5389950015417396 0.4953378955092046 0.04738968729842086 0.05811365967736794 0.3204926650761274 -0.8257506759180698 -3.063709454685589 -0.07835538845593965 0.2583357961538379 -1.82798047231625 2.009152519333372 -0.09999999999999999 0.7321350806213258 -0.03949752964466814 -0.09526845801614352 -0.6790651448667891 -0.2209250014969347 -0.5389950015417443 0.4953378955092046 0.04738968729842086 0.05337469094752587 0.3551883176069762 -0.8276224514969908 -3.068224197120376 -0.1105360733264336 0.2478662294164951 -1.853523276894725 2.032626427308611 -0.09999999999999999 0.7321350806213301 -0.03949752964466832 -0.0952684580161252 -0.6790651448667913 -0.2209250014969333 -0.538995001541742 0.4953378955092068 0.04738968729842065 0.04863572221768379 0.3898839701378251 -0.8294942270759117 -3.072738939555163 -0.1427167581969276 0.2373966626791523 -1.879066081473199 2.05610033528385 -0.09999999999999999 0.7321350806213281 -0.03949752964466814 -0.09526845801613415 -0.6790651448667895 -0.2209250014969329 -0.5389950015417209 0.4953378955091953 0.04738968729842086 0.04389675348784171 0.4245796226686739 -0.8313660026548326 -3.077253681989951 -0.1748974430674216 0.2269270959418095 -1.904608886051674 2.079574243259089 -0.1 0.7321350806213269 -0.0394975296446682 -0.09526845801614367 -0.6790651448667901 -0.2209250014969333 -0.5389950015417452 0.4953378955092054 0.04738968729842079 0.03915778475799963 0.4592752751995227 -0.8332377782337536 -3.081768424424738 -0.2070781279379156 0.2164575292044667 -1.930151690630149 2.103048151234328 -0.1 0.7321350806213281 -0.0394975296446682 -0.09526845801612492 -0.6790651448667901 -0.2209250014969327 -0.5389950015417404 0.4953378955092054 0.04738968729842079 0.03441881602815755 0.4939709277303715 -0.8351095538126745 -3.086283166859525 -0.2392588128084096 0.2059879624671239 -1.955694495208624 2.126522059209567 -0.1 0.7321350806213269 -0.0394975296446682 -0.09526845801613429 -0.6790651448667901 -0.2209250014969333 -0.5389950015417404 0.4953378955092054 0.04738968729842079 0.02967984729831547 0.5286665802612204 -0.8369813293915954 -3.090797909294313 -0.2714394976789036 0.1955183957297811 -1.981237299787099 2.149995967184807 -0.09999999999999999 0.7321350806213287 -0.03949752964466817 -0.09526845801614359 -0.679065144866789 -0.2209250014969325 -0.5389950015417446 0.4953378955092237 0.04738968729842082 0.02494087856847339 0.5633622327920692 -0.8388531049705164 -3.0953126517291 -0.3036201825493977 0.1850488289924383 -2.006780104365574 2.173469875160046 -0.1 0.7321350806213281 -0.0394975296446682 -0.09526845801612492 -0.6790651448667931 -0.2209250014969333 -0.5389950015417404 0.4953378955092054 0.04738968729842079 0.02020190983863131 0.598057885322918 -0.8407248805494373 -3.099827394163887 -0.3358008674198917 0.1745792622550955 -2.032322908944049 2.196943783135285 -0.1 0.7321350806213281 -0.0394975296446682 -0.09526845801613429 -0.6790651448667896 -0.2209250014969327 -0.5389950015417452 0.4953378955092054 0.04738968729842079 0.01904697552779849 0.5949361941854385 -0.855543660412078 -3.099870545622915 -0.3632606704216688 0.1237411894940216 -2.030595719925536 2.191787275823963 -0.03568982268162665 -0.09646661469699491 -0.4579304820153206 -0.001333467978836285 -0.8485638454182934 -1.571 0.05337365877019839 -0.1593465791702857 0.03236032639151745 0.01789204121696566 0.591814503047959 -0.8703624402747187 -3.099913697081944 -0.3907204734234458 0.07290311673294775 -2.028868530907024 2.186630768512642 -0.0356898226816269 -0.09646661469699502 -0.457930482015321 -0.001333467978877457 -0.8485638454182893 -1.571 0.053373658770171 -0.1593465791702448 0.03236032639151742 0.01673710690613283 0.5886928119104795 -0.8851812201373593 -3.099956848540972 -0.4181802764252229 0.02206504397187387 -2.027141341888512 2.181474261201321 -0.03568982268162699 -0.09646661469699498 -0.4579304820153208 -0.001333467978836286 -0.8485638454182923 -1.571 0.05337365877015725 -0.1593465791702447 0.03236032639151743 0.0155821725953 0.585571120773 -0.9 -3.1 -0.445640079427 -0.0287730287892 -2.02541415287 2.17631775389 -0.03568982268162695 -0.096466614696995 -0.4579304820153209 -0.00133346797885001 -0.8485638454182942 -1.571 0.05337365877017099 -0.1593465791702584 0.03236032639151742 </data>\n<description><![CDATA[{"planning_method": "PlanToConfigurations", "planner": "CBiRRTPlanner", "deterministic_endpoint": false, "deterministic": false, "smooth": true, "constrained": false}]]></description>\n</trajectory>\n'
p633
ssg337
g338
((lp634
(lp635
g432
a(dp636
g342
g444
sg344
g629
saa(lp637
g425
a(dp638
g342
g447
sg344
g623
saa(lp639
g404
ag608
aa(lp640
g418
ag617
aa(lp641
g439
a(dp642
g342
g452
sg344
g633
saa(lp643
g413
a(dp644
g342
g455
sg344
g329
saatp645
Rp646
sg367
(lp647
g459
ag460
asg373
g34
((lp648
g95
ag96
ag97
ag98
ag99
ag100
atp649
Rp650
sg377
I01
sbssg187
(dp651
ssS'_Graph__root_node'
p652
g23
sb.