ccopy_reg
_reconstructor
p0
(csrc.DataStructures.RefinedPolicy
RefinedPolicy
p1
c__builtin__
object
p2
Ntp3
Rp4
(dp5
S'graph'
p6
g0
(cnetworkx.classes.digraph
DiGraph
p7
g2
Ntp8
Rp9
(dp10
S'adjlist_inner_dict_factory'
p11
c__builtin__
dict
p12
sS'node_dict_factory'
p13
g12
sS'edge_attr_dict_factory'
p14
g12
sS'_node'
p15
(dp16
g0
(csrc.DataStructures.RefinedPolicyNode
RefinedPolicyNode
p17
g2
Ntp18
Rp19
(dp20
S'parent'
p21
g0
(g17
g2
Ntp22
Rp23
(dp24
g21
g0
(g17
g2
Ntp25
Rp26
(dp27
g21
g0
(g17
g2
Ntp28
Rp29
(dp30
g21
NsS'goal'
p31
I00
sS'hl_state'
p32
g0
(csrc.States.PDDLState
PDDLState
p33
g2
Ntp34
Rp35
(dp36
S'_PDDLState__objDict'
p37
(dp38
sS'_PDDLState__trueSet'
p39
c__builtin__
set
p40
((lp41
S'(empty gripper)'
p42
aS'(revived)'
p43
atp44
Rp45
sS'_PDDLState__falseSet'
p46
g40
((lp47
tp48
Rp49
sbsS'll_state'
p50
NsS'visited'
p51
I00
sS'children'
p52
(lp53
g26
asbsg31
I00
sg32
g0
(g33
g2
Ntp54
Rp55
(dp56
g37
(dp57
sg39
g40
((lp58
S'(delicate object17)'
p59
aS'(empty gripper)'
p60
aS'(init)'
p61
aS'(revived)'
p62
aS'(delicate object11)'
p63
aS'(delicate object7)'
p64
aS'(delicate object3)'
p65
atp66
Rp67
sg46
g40
((lp68
tp69
Rp70
sbsg50
Nsg51
I00
sg52
(lp71
g23
asbsg31
I00
sg32
g0
(g33
g2
Ntp72
Rp73
(dp74
g37
(dp75
sg39
g40
((lp76
S'(delicate object17)'
p77
aS'(init)'
p78
aS'(crushed object1)'
p79
aS'(delicate object11)'
p80
aS'(delicate object7)'
p81
aS'(delicate object3)'
p82
aS'(ingripper object1 gripper)'
p83
atp84
Rp85
sg46
g40
((lp86
tp87
Rp88
sbsg50
Nsg51
I00
sg52
(lp89
g19
asbsg31
I00
sg32
g0
(g33
g2
Ntp90
Rp91
(dp92
g37
(dp93
sg39
g40
((lp94
S'(delicate object17)'
p95
aS'(init)'
p96
aS'(terminated)'
p97
aS'(crushed object1)'
p98
aS'(delicate object11)'
p99
aS'(delicate object7)'
p100
aS'(delicate object3)'
p101
aS'(ingripper object1 gripper)'
p102
atp103
Rp104
sg46
g40
((lp105
tp106
Rp107
sbsg50
Nsg51
I00
sg52
(lp108
sb(dp109
sg23
(dp110
sg29
(dp111
sg26
(dp112
ssg6
(dp113
sS'_pred'
p114
(dp115
g19
(dp116
g23
(dp117
S'label'
p118
Nsssg23
(dp119
g26
(dp120
g118
Nsssg29
(dp121
sg26
(dp122
g29
(dp123
g118
NssssS'_succ'
p124
(dp125
g19
(dp126
sg23
(dp127
g19
g117
ssg29
(dp128
g26
g123
ssg26
(dp129
g23
g120
sssS'_adj'
p130
g125
sS'adjlist_outer_dict_factory'
p131
g12
sbsS'edges'
p132
(dp133
g19
(dp134
sg23
(dp135
g19
g0
(csrc.DataStructures.RefinedPolicyEdge
RefinedPolicyEdge
p136
g2
Ntp137
Rp138
(dp139
S'generated_values'
p140
NsS'll_plan'
p141
NsS'exec_seq'
p142
NsS'effect'
p143
(lp144
sS'has_mp'
p145
I00
sbssg29
(dp146
g26
g0
(g136
g2
Ntp147
Rp148
(dp149
g140
Nsg141
Nsg142
Nsg143
(lp150
sg145
I00
sbssg26
(dp151
g23
g0
(g136
g2
Ntp152
Rp153
(dp154
g140
(dp155
S'next_hl_state'
p156
g0
(g33
g2
Ntp157
Rp158
(dp159
g37
(dp160
sg39
g40
((lp161
g77
ag78
ag79
ag80
ag81
ag82
ag83
atp162
Rp163
sg46
g40
((lp164
tp165
Rp166
sbsVtbpose
p167
(lp168
I0
aI0
aI0
asVobj
p169
S'object1'
p170
sVtraj2
p171
S'<trajectory>\n<configuration>\n<group name="joint_values fetch 11 10 9 12 1 2 13 14" offset="0" dof="8" interpolation="linear"/>\n<group name="joint_velocities fetch 11 10 9 12 1 2 13 14" offset="8" dof="8" interpolation="next"/>\n<group name="deltatime" offset="16" dof="1" interpolation=""/>\n</configuration>\n<data count="73">\n0.383659881476 -0.060241764808 0.5000000000000001 0.8999999999999999 1.47066641635 -0.4309936437509999 -1.73300116112 -0.9290898555880001 0 0 0 0 0 0 0 0 0 0.382460001467391 -0.05051799596352888 0.4874365306134828 0.8656608557233929 1.438514338081933 -0.429466809214978 -1.705788572156575 -0.9093622415406802 -0.05489395653953019 0.4448579362261714 -0.5747729252433456 -1.571 -1.470942739640229 0.06985197524926363 1.24496338397879 0.9025292365672692 0.02185814403348632 0.3786266998600513 -0.06502764831158306 0.4758069394174643 0.8538990423413197 1.385119258434545 -0.4155952448859601 -1.712768207452192 -0.9065661539598262 -0.1 -0.3785158026770525 -0.3033831508001116 -0.3068324537665549 -1.392926649579344 0.3618698905000782 -0.182078949442768 0.07294201884611209 0.0383330160733969 0.3747933982527115 -0.07953730065963724 0.4641773482214459 0.8421372289592466 1.331724178787158 -0.4017236805569422 -1.719747842747808 -0.9037700663789722 -0.09999999999999999 -0.3785158026770415 -0.3033831508001014 -0.3068324537665461 -1.39292664957928 0.3618698905000691 -0.1820789494427396 0.07294201884610997 0.03833301607339801 0.3709600966453718 -0.09404695300769142 0.4525477570254274 0.8303754155771734 1.27832909913977 -0.3878521162279243 -1.726727478043425 -0.9009739787981181 -0.09999999999999999 -0.378515802677047 -0.3033831508001087 -0.3068324537665505 -1.39292664957933 0.3618698905000729 -0.1820789494427712 0.07294201884611103 0.03833301607339745 0.367126795038032 -0.1085566053557456 0.4409181658294089 0.8186136021951003 1.224934019492383 -0.3739805518989063 -1.733707113339041 -0.8981778912172641 -0.09999999999999999 -0.378515802677047 -0.3033831508001072 -0.3068324537665505 -1.3929266495793 0.3618698905000772 -0.1820789494427422 0.07294201884611103 0.03833301607339745 0.3632934934306923 -0.1230662577037998 0.4292885746333904 0.8068517888130271 1.171538939844995 -0.3601089875698884 -1.740686748634657 -0.8953818036364101 -0.09999999999999999 -0.3785158026770473 -0.3033831508001087 -0.3068324537665505 -1.39292664957933 0.3618698905000729 -0.182078949442748 0.07294201884611103 0.03833301607339745 0.3589749819934659 -0.1125463304763262 0.4002326413182055 0.7961857838553292 1.178238848454793 -0.3404697531582715 -1.698768190892456 -0.8773896670017375 -0.09999999999999999 0.2436007726363723 -0.6728228867177977 -0.2469833671332876 0.1551439357562791 0.4547686094408127 0.9706714536137443 0.4166282038661965 0.04318511437226391 0.3546564705562396 -0.1020264032488525 0.3711767080030205 0.7855197788976314 1.184938757064591 -0.3208305187466546 -1.656849633150254 -0.8593975303670649 -0.1 0.2436007726363811 -0.6728228867178189 -0.2469833671332939 0.1551439357562831 0.4547686094408244 0.9706714536137847 0.4166282038662073 0.0431851143722628 0.3503379591190133 -0.09150647602137892 0.3421207746878355 0.7748537739399335 1.191638665674388 -0.3011912843350377 -1.614931075408053 -0.8414053937323923 -0.1 0.2436007726363751 -0.6728228867178089 -0.2469833671332908 0.1551439357562554 0.4547686094408172 0.9706714536137516 0.4166282038662019 0.04318511437226336 0.3460194476817869 -0.08098654879390529 0.3130648413726506 0.7641877689822356 1.198338574284186 -0.2815520499234208 -1.573012517665851 -0.8234132570977197 -0.09999999999999999 0.2436007726363729 -0.6728228867177989 -0.2469833671332876 0.1551439357562791 0.4547686094408127 0.9706714536137648 0.4166282038661965 0.04318511437226391 0.3417009362445606 -0.07046662156643167 0.2840089080574656 0.7535217640245377 1.205038482893984 -0.2619128155118038 -1.531093959923649 -0.8054211204630471 -0.1 0.2436007726363792 -0.6728228867178189 -0.2469833671332939 0.155143935756278 0.4547686094408269 0.9706714536137847 0.4166282038662073 0.0431851143722628 0.3373824248073343 -0.05994669433895805 0.2549529747422806 0.7428557590668399 1.211738391503781 -0.242273581100187 -1.489175402181448 -0.7874289838283746 -0.1 0.2436007726363792 -0.6728228867178175 -0.2469833671332939 0.1551439357562574 0.4547686094408211 0.9706714536137642 0.4166282038662073 0.0431851143722628 0.3330639133701079 -0.04942676711148443 0.2258970414270957 0.732189754109142 1.218438300113579 -0.2226343466885701 -1.447256844439246 -0.769436847193702 -0.09999999999999999 0.2436007726363698 -0.6728228867177902 -0.2469833671332844 0.1551439357562771 0.4547686094408068 0.9706714536137524 0.4166282038661912 0.04318511437226447 0.3287454019328816 -0.03890683988401081 0.1968411081119107 0.7215237491514441 1.225138208723376 -0.2029951122769532 -1.405338286697045 -0.7514447105590294 -0.1 0.2436007726363792 -0.6728228867178189 -0.2469833671332939 0.1551439357562574 0.4547686094408244 0.9706714536137642 0.4166282038662073 0.0431851143722628 0.3244268904956553 -0.02838691265653719 0.1677851747967257 0.7108577441937463 1.231838117333174 -0.1833558778653363 -1.363419728954843 -0.7334525739243568 -0.1 0.2436007726363791 -0.6728228867178182 -0.2469833671332939 0.1551439357562831 0.4547686094408238 0.9706714536137847 0.4166282038662073 0.0431851143722628 0.3201083790584289 -0.01786698542906356 0.1387292414815408 0.7001917392360484 1.238538025942972 -0.1637166434537194 -1.321501171212642 -0.7154604372896842 -0.09999999999999999 0.2436007726363731 -0.6728228867177982 -0.2469833671332876 0.1551439357562739 0.4547686094408127 0.9706714536137392 0.4166282038661965 0.04318511437226391 0.3157898676212026 -0.007347058201589943 0.1096733081663558 0.6895257342783505 1.245237934552769 -0.1440774090421025 -1.27958261347044 -0.6974683006550116 -0.1 0.243600772636376 -0.6728228867178099 -0.2469833671332908 0.1551439357562605 0.4547686094408179 0.9706714536137774 0.4166282038662019 0.04318511437226336 0.3114713561839763 0.003172869025883677 0.08061737485117081 0.6788597293206526 1.251937843162567 -0.1244381746304856 -1.237664055728239 -0.6794761640203391 -0.1 0.2436007726363792 -0.6728228867178182 -0.2469833671332939 0.155143935756278 0.454768609440824 0.9706714536137642 0.4166282038662073 0.0431851143722628 0.3071528447467499 0.0136927962533573 0.05156144153598583 0.6681937243629548 1.258637751772365 -0.1047989402188687 -1.195745497986037 -0.6614840273856665 -0.09999999999999999 0.2436007726363729 -0.6728228867178003 -0.2469833671332876 0.1551439357562791 0.4547686094408127 0.9706714536137648 0.4166282038661965 0.04318511437226391 0.3028343333095236 0.02421272348083092 0.02250550822080086 0.6575277194052568 1.265337660382162 -0.08515970580725185 -1.153826940243835 -0.6434918907509939 -0.1 0.243600772636376 -0.672822886717809 -0.2469833671332933 0.1551439357562554 0.4547686094408169 0.9706714536137723 0.4166282038662019 0.04318511437226336 0.2985158218722972 0.03473265070830454 -0.006550425094384117 0.6468617144475588 1.27203756899196 -0.06552047139563495 -1.111908382501634 -0.6254997541163213 -0.09999999999999999 0.2436007726363728 -0.6728228867178004 -0.2469833671332902 0.1551439357562791 0.4547686094408123 0.9706714536137392 0.4166282038661965 0.04318511437226391 0.2941973104350709 0.04525257793577817 -0.03560635840956909 0.6361957094898609 1.278737477601757 -0.04588123698401805 -1.069989824759433 -0.6075076174816487 -0.1 0.2436007726363795 -0.6728228867178176 -0.2469833671332939 0.1551439357562574 0.454768609440824 0.9706714536137642 0.4166282038662073 0.0431851143722628 0.2898787989978446 0.05577250516325179 -0.06466229172475407 0.6255297045321631 1.285437386211555 -0.02624200257240116 -1.028071267017231 -0.5895154808469761 -0.1 0.2436007726363759 -0.6728228867178092 -0.2469833671332908 0.1551439357562759 0.454768609440818 0.9706714536137774 0.4166282038662019 0.04318511437226336 0.2855602875606182 0.06629243239072541 -0.09371822503993904 0.6148636995744652 1.292137294821353 -0.00660276816078427 -0.9861527092750296 -0.5715233442123036 -0.09999999999999999 0.2436007726363729 -0.6728228867178002 -0.2469833671332876 0.1551439357562791 0.4547686094408122 0.9706714536137468 0.4166282038661965 0.04318511437226391 0.281241776123392 0.07681235961819903 -0.122774158355124 0.6041976946167672 1.29883720343115 0.01303646625083263 -0.9442341515328281 -0.553531207577631 -0.09999999999999999 0.2436007726363854 -0.6728228867178344 -0.2469833671333029 0.1551439357562614 0.4547686094408357 0.9706714536138019 0.416628203866218 0.04318511437226169 0.2769232646861657 0.08733228684567265 -0.151830091670309 0.5935316896590693 1.305537112040948 0.03267570066244951 -0.9023155937906265 -0.5355390709429584 -0.1 0.2436007726363761 -0.6728228867178099 -0.2469833671332908 0.1551439357562811 0.4547686094408177 0.9706714536137645 0.4166282038662019 0.04318511437226336 0.2726047532489393 0.09785221407314627 -0.180886024985494 0.5828656847013713 1.312237020650746 0.05231493507406641 -0.860397036048425 -0.5175469343082858 -0.09999999999999999 0.2436007726363729 -0.6728228867178009 -0.2469833671332902 0.1551439357562791 0.4547686094408125 0.970671453613752 0.4166282038661965 0.04318511437226391 0.2682862418117131 0.1083721413006199 -0.2099419583006789 0.5721996797436735 1.318936929260543 0.0719541694856833 -0.8184784783062234 -0.4995547976736132 -0.09999999999999999 0.2436007726363854 -0.6728228867178335 -0.2469833671333003 0.1551439357562614 0.4547686094408354 0.9706714536138019 0.416628203866218 0.04318511437226169 0.2639677303744867 0.1188920685280935 -0.2389978916158639 0.5615336747859755 1.325636837870341 0.09159340389730018 -0.7765599205640219 -0.4815626610389405 -0.09999999999999999 0.2436007726363695 -0.6728228867177921 -0.246983367133287 0.1551439357562719 0.4547686094408062 0.9706714536137395 0.4166282038661938 0.04318511437226447 0.2596492189372605 0.1294119957555671 -0.2680538249310489 0.5508676698282776 1.332336746480139 0.1112326383089171 -0.7346413628218204 -0.4635705244042679 -0.09999999999999999 0.2436007726363851 -0.6728228867178354 -0.2469833671333003 0.1551439357562871 0.454768609440836 0.9706714536138019 0.4166282038662192 0.04318511437226169 0.2553307075000342 0.1399319229830407 -0.2971097582462339 0.5402016648705796 1.339036655089936 0.130871872720534 -0.6927228050796188 -0.4455783877695952 -0.1 0.2436007726363782 -0.6728228867178189 -0.2469833671332965 0.1551439357562574 0.454768609440824 0.970671453613777 0.4166282038662099 0.0431851143722628 0.2510121960628078 0.1504518502105144 -0.3261656915614188 0.5295356599128818 1.345736563699734 0.1505111071321509 -0.6508042473374173 -0.4275862511349226 -0.09999999999999999 0.243600772636372 -0.672822886717789 -0.2469833671332844 0.1551439357562771 0.4547686094408068 0.9706714536137395 0.4166282038661912 0.04318511437226447 0.2466936846255815 0.160971777437988 -0.3552216248766038 0.5188696549551838 1.352436472309531 0.1701503415437677 -0.6088856895952157 -0.40959411450025 -0.1 0.2436007726363782 -0.6728228867178189 -0.2469833671332965 0.1551439357562574 0.4547686094408218 0.970671453613777 0.4166282038662073 0.0431851143722628 0.2423751731883552 0.1714917046654616 -0.3842775581917888 0.5082036499974858 1.359136380919329 0.1897895759553846 -0.5669671318530142 -0.3916019778655773 -0.1 0.2436007726363773 -0.6728228867178145 -0.2469833671332949 0.1551439357562821 0.4547686094408208 0.9706714536137707 0.4166282038662072 0.04318511437226308 0.2380566617511289 0.1820116318929352 -0.4133334915069737 0.4975376450397879 1.365836289529127 0.2094288103670015 -0.5250485741108126 -0.3736098412309047 -0.1 0.2436007726363789 -0.672822886717815 -0.2469833671332939 0.155143935756278 0.4547686094408244 0.970671453613777 0.4166282038662086 0.0431851143722628 0.2337381503139026 0.1925315591204088 -0.4423894248221587 0.4868716400820899 1.372536198138924 0.2290680447786184 -0.4831300163686111 -0.355617704596232 -0.1 0.2436007726363773 -0.6728228867178145 -0.2469833671332962 0.1551439357562564 0.4547686094408208 0.9706714536137707 0.4166282038662072 0.04318511437226308 0.2294196388766763 0.2030514863478824 -0.4714453581373437 0.476205635124392 1.379236106748722 0.2487072791902353 -0.4412114586264095 -0.3376255679615594 -0.1 0.2436007726363767 -0.6728228867178132 -0.2469833671332924 0.1551439357562821 0.4547686094408214 0.9706714536137721 0.4166282038662046 0.04318511437226308 0.22510112743945 0.2135714135753561 -0.5005012914525286 0.4655396301666941 1.38593601535852 0.2683465136018522 -0.399292900884208 -0.3196334313268868 -0.1 0.2436007726363799 -0.6728228867178132 -0.2469833671332936 0.1551439357562821 0.4547686094408208 0.9706714536137695 0.4166282038662046 0.04318511437226308 0.2207826160022237 0.2240913408028297 -0.5295572247677136 0.4548736252089962 1.392635923968317 0.2879857480134691 -0.3573743431420064 -0.3016412946922141 -0.1 0.2436007726363782 -0.6728228867178175 -0.2469833671332939 0.1551439357562574 0.4547686094408244 0.9706714536137783 0.4166282038662099 0.0431851143722628 0.2164641045649974 0.2346112680303033 -0.5586131580828986 0.4442076202512982 1.399335832578115 0.307624982425086 -0.3154557853998049 -0.2836491580575415 -0.1 0.2436007726363773 -0.6728228867178132 -0.2469833671332962 0.155143935756277 0.4547686094408214 0.9706714536137695 0.4166282038662059 0.04318511437226308 0.2121455931277711 0.2451311952577769 -0.5876690913980835 0.4335416152936003 1.406035741187913 0.3272642168367029 -0.2735372276576034 -0.2656570214228688 -0.1 0.2436007726363773 -0.6728228867178132 -0.2469833671332924 0.1551439357562821 0.4547686094408214 0.9706714536137695 0.4166282038662072 0.04318511437226308 0.2078270816905448 0.2556511224852505 -0.6167250247132685 0.4228756103359024 1.412735649797711 0.3469034512483198 -0.2316186699154018 -0.2476648847881962 -0.1 0.2436007726363789 -0.6728228867178175 -0.2469833671332952 0.1551439357562831 0.4547686094408231 0.9706714536137783 0.4166282038662073 0.0431851143722628 0.2035085702533184 0.2661710497127242 -0.6457809580284535 0.4122096053782044 1.419435558407509 0.3665426856599367 -0.1897001121732003 -0.2296727481535236 -0.09999999999999999 0.2436007726363729 -0.6728228867177959 -0.2469833671332886 0.1551439357562729 0.4547686094408097 0.9706714536137451 0.4166282038661945 0.04318511437226419 0.2033957271605482 0.2759726339765073 -0.6299605528323976 0.4385968348449971 1.384578858379595 0.3537751322158944 -0.1763046097543501 -0.1980704417500346 -0.004923998656384532 0.4276999731264093 0.690336041103462 1.151427874321176 -1.521 -0.5571224118415365 0.5845234678771892 1.378991929850323 0.02291696254300714 0.203282884067778 0.2857742182402904 -0.6141401476363417 0.4649840643117897 1.349722158351682 0.3410075787718521 -0.1629091073354999 -0.1664681353465457 -0.004923998656385868 0.4276999731264226 0.6903360411034796 1.151427874321198 -1.521 -0.5571224118415508 0.5845234678772052 1.378991929850355 0.02291696254300656 0.1882240479740837 1.238715070684924 0.0378313947623291 2.166908977211278 1.559754818148912 -1.504718488840007 -0.04325848495206483 1.570639115748972 -0.01281741203005467 0.8111009024906618 0.5549292016195887 1.448602847997137 0.1787704656349018 -1.571 0.1018412921954274 1.478548490677189 1.174873372127218 0.1879478736518164 1.253599189926484 0.0391338600174201 2.184837443702595 1.599103209452962 -1.539604617987142 -0.05324254827342052 1.584388336460842 -0.01067543374067619 0.5753410651907072 0.05034639504536766 0.6930193746062129 1.521 -1.348512624640163 -0.3859309061567402 0.5314719105327609 0.02587007975282708 0.187671699329549 1.268483309168045 0.0404363252725111 2.202765910193913 1.638451600757012 -1.574490747134277 -0.0632266115947762 1.598137557172713 -0.0106754337406794 0.5753410651907415 0.05034639504536766 0.6930193746062472 1.521 -1.348512624640154 -0.3859309061567397 0.5314719105328037 0.02587007975282708 0.1873955250072817 1.283367428409606 0.0417387905276021 2.22069437668523 1.677799992061061 -1.609376876281412 -0.0732106749161319 1.611886777884583 -0.01067543374067541 0.5753410651907577 0.05034639504536908 0.6930193746062324 1.521 -1.348512624640192 -0.3859309061567511 0.5314719105327758 0.02587007975282635 0.1871193506850143 1.298251547651167 0.0430412557826931 2.238622843176548 1.71714838336511 -1.644263005428546 -0.08319473823748759 1.625635998596453 -0.01067543374067964 0.5753410651907543 0.05034639504536879 0.6930193746062627 1.521 -1.34851262464015 -0.3859309061567489 0.5314719105327813 0.0258700797528265 0.1868431763627469 1.313135666892728 0.0443437210377841 2.256551309667865 1.75649677466916 -1.679149134575681 -0.09317880155884328 1.639385219308323 -0.01067543374068048 0.57534106519075 0.05034639504536766 0.6930193746062129 1.521 -1.348512624640154 -0.3859309061567402 0.5314719105327609 0.02587007975282708 0.1996174219242195 1.116669462979607 0.07181308662011263 1.624638242491283 1.790959657382837 -1.545486032800637 -0.2284730925244797 1.555523515948422 0.03175807056299662 -0.4884349167308227 0.06829162992728406 -1.571 0.08567822309023046 0.332300032703575 -0.3363553345346798 -0.2084887033070147 0.4022361980754818 0.2027370611033923 0.6115015570599797 0.07228332068612169 -0.8326613183637079 2.034438319929705 -1.291282250040437 -0.3891452777750896 1.886512219691048 0.001994446761214224 -0.322963790350251 0.000300629898555468 -1.571 0.1556607037068126 0.1625174842652569 -0.1027208920921642 0.2116075963480586 1.564162674000631 0.1993192582069399 0.5601991314902428 0.06351654344423528 -1.186799777549024 2.078621029268128 -1.276708215665841 -0.3819431028750824 1.988799343173462 -0.01516177701421841 -0.2275836144864506 -0.03889045849097263 -1.571 0.1959997130228106 0.06465213649814143 0.03194969784964952 0.4537577515882969 0.2254223164769676 0.1965792994176654 0.5693360375185627 0.05717429936399999 -1.217506530462968 2.088197630975454 -1.289383748684405 -0.3621371221598 2.032158582441603 -0.09999999999999999 0.3334687391681205 -0.2314722434900043 -1.120701268725083 0.349516268084524 -0.4626176520676926 0.7228568835711051 1.582477789004313 0.02739958789274521 0.193839340628391 0.5784729435468825 0.05083205528376469 -1.248213283376911 2.09777423268278 -1.30205928170297 -0.3423311414445176 2.075517821709744 -0.09999999999999999 0.3334687391681374 -0.231472243490016 -1.120701268725107 0.3495162680845255 -0.4626176520677402 0.7228568835711418 1.582477789004401 0.02739958789274383 0.1910993818391166 0.5876098495752023 0.0444898112035294 -1.278920036290854 2.107350834390107 -1.314734814721534 -0.3225251607292353 2.118877060977885 -0.09999999999999999 0.333468739168134 -0.2314722434900137 -1.120701268725088 0.3495162680845706 -0.4626176520677113 0.7228568835711303 1.582477789004385 0.0273995878927441 0.1883594230498421 0.5967467556035222 0.0381475671232941 -1.309626789204797 2.116927436097433 -1.327410347740098 -0.3027191800139529 2.162236300246026 -0.09999999999999999 0.3334687391681239 -0.2314722434900069 -1.120701268725062 0.3495162680845114 -0.4626176520676891 0.7228568835711124 1.582477789004337 0.02739958789274494 0.1856194642605677 0.605883661631842 0.03180532304305881 -1.34033354211874 2.126504037804759 -1.340085880758663 -0.2829131992986706 2.205595539514167 -0.09999999999999999 0.333468739168134 -0.2314722434900134 -1.120701268725088 0.3495162680845382 -0.4626176520677437 0.7228568835711324 1.582477789004385 0.0273995878927441 0.1828795054712933 0.6150205676601619 0.02546307896282352 -1.371040295032683 2.136080639512085 -1.352761413777227 -0.2631072185833883 2.248954778782308 -0.09999999999999999 0.3334687391681374 -0.2314722434900159 -1.120701268725107 0.3495162680845255 -0.4626176520677078 0.7228568835711376 1.582477789004401 0.02739958789274383 0.1801395466820188 0.6241574736884817 0.01912083488258822 -1.401747047946626 2.145657241219411 -1.365436946795792 -0.2433012378681059 2.292314018050449 -0.09999999999999999 0.3334687391681205 -0.2314722434900044 -1.12070126872505 0.349516268084524 -0.462617652067725 0.7228568835711061 1.582477789004321 0.02739958789274521 0.1773995878927444 0.6332943797168016 0.01277859080235293 -1.432453800860569 2.155233842926738 -1.378112479814356 -0.2234952571528236 2.33567325731859 -0.09999999999999999 0.3334687391681374 -0.2314722434900159 -1.120701268725099 0.3495162680845741 -0.4626176520677078 0.7228568835711386 1.582477789004401 0.02739958789274383 0.1746596291034699 0.6424312857451214 0.006436346722117636 -1.463160553774512 2.164810444634064 -1.39078801283292 -0.2036892764375412 2.379032496586731 -0.09999999999999999 0.3334687391681239 -0.2314722434900066 -1.120701268725062 0.3495162680845114 -0.4626176520676891 0.7228568835711124 1.582477789004337 0.02739958789274494 0.1719196703141955 0.6515681917734413 9.410264188234284e-05 -1.493867306688455 2.17438704634139 -1.403463545851485 -0.1838832957222588 2.422391735854872 -0.09999999999999999 0.333468739168134 -0.2314722434900137 -1.120701268725088 0.3495162680845382 -0.4626176520677437 0.7228568835711344 1.582477789004385 0.0273995878927441 0.1691797115249211 0.6607050978017611 -0.006248141438352948 -1.524574059602398 2.183963648048716 -1.416139078870049 -0.1640773150069765 2.465750975123013 -0.09999999999999999 0.333468739168134 -0.2314722434900136 -1.120701268725096 0.349516268084522 -0.4626176520677032 0.7228568835711313 1.582477789004385 0.0273995878927441 0.1664397527356466 0.669842003830081 -0.01259038551858824 -1.555280812516342 2.193540249756043 -1.428814611888614 -0.1442713342916941 2.509110214391154 -0.09999999999999999 0.3334687391681239 -0.2314722434900065 -1.120701268725094 0.34951626808456 -0.4626176520677296 0.7228568835711134 1.582477789004337 0.02739958789274494 0.1636997939463722 0.6789789098584008 -0.01893262959882353 -1.585987565430285 2.203116851463369 -1.441490144907178 -0.1244653535764118 2.552469453659295 -0.09999999999999999 0.3334687391681374 -0.2314722434900158 -1.120701268725107 0.3495162680845417 -0.4626176520677078 0.7228568835711382 1.582477789004401 0.02739958789274383 0.1609598351570977 0.6881158158867207 -0.02527487367905882 -1.616694318344228 2.212693453170695 -1.454165677925742 -0.1046593728611294 2.595828692927436 -0.09999999999999999 0.3334687391681205 -0.2314722434900042 -1.120701268725042 0.3495162680845078 -0.4626176520676845 0.7228568835711051 1.582477789004321 0.02739958789274521 0.1582198763678233 0.6972527219150405 -0.03161711775929411 -1.647401071258171 2.222270054878021 -1.466841210944307 -0.08485339214584704 2.639187932195577 -0.09999999999999999 0.3334687391681374 -0.2314722434900158 -1.120701268725107 0.3495162680845417 -0.4626176520677484 0.7228568835711408 1.582477789004401 0.02739958789274383 0.1554799175785489 0.7063896279433604 -0.03795936183952941 -1.678107824172114 2.231846656585347 -1.479516743962871 -0.06504741143056469 2.682547171463718 -0.09999999999999999 0.333468739168134 -0.2314722434900139 -1.120701268725088 0.349516268084522 -0.4626176520677032 0.7228568835711329 1.582477789004385 0.0273995878927441 0.1527399587892744 0.7155265339716802 -0.0443016059197647 -1.708814577086057 2.241423258292674 -1.492192276981436 -0.04524143071528235 2.725906410731859 -0.09999999999999999 0.3334687391681239 -0.2314722434900066 -1.120701268725062 0.34951626808456 -0.4626176520677296 0.7228568835711107 1.582477789004337 0.02739958789274494 0.15 0.72466344 -0.05064385 -1.73952133 2.25099986 -1.50486781 -0.02543545 2.76926565 -0.09999999999999999 0.333468739168134 -0.2314722434900137 -1.120701268725096 0.349516268084522 -0.4626176520677032 0.7228568835711331 1.582477789004385 0.0273995878927441 </data>\n<description><![CDATA[{"planning_method": "PlanToConfiguration", "planner": "CBiRRTPlanner", "deterministic_endpoint": true, "deterministic": false, "smooth": true, "constrained": false}]]></description>\n</trajectory>\n'
p172
sVgripper
p173
S'gripper'
p174
sVtrajectory
p175
S'traj'
p176
sVrobot
p177
S'fetch'
p178
sVgripper_close_traj
p179
S'close'
p180
sS'current_hl_state'
p181
g0
(g33
g2
Ntp182
Rp183
(dp184
g37
(dp185
sg39
g40
((lp186
g59
ag60
ag61
ag62
ag63
ag64
ag65
atp187
Rp188
sg46
g40
((lp189
tp190
Rp191
sbsVtraj1
p192
S'<trajectory>\n<configuration>\n<group name="joint_values fetch 11 10 9 12 1 2 13 14" offset="0" dof="8" interpolation="linear"/>\n<group name="joint_velocities fetch 11 10 9 12 1 2 13 14" offset="8" dof="8" interpolation="next"/>\n<group name="deltatime" offset="16" dof="1" interpolation=""/>\n</configuration>\n<data count="61">\n0 1.32000492 1.39998343 -0.1998453339999998 1.71996798 2.706226490100048e-06 1.660006469999999 -1.347754262493529e-06 0 0 0 0 0 0 0 0 0 0.003737232518021636 1.312657633462209 1.385253237933331 -0.2276119807987932 1.682850418669425 0.007821543095606844 1.65808389682531 -0.03317274332546259 0.1 -0.1965969872722884 -0.3941470592380104 -0.7429734881331954 -0.9931830880628149 0.2092146215525217 -0.0514437666219058 -0.8875925009011725 0.03737232518021636 0.008483039448120969 1.29744824141652 1.367847907958611 -0.2219396760233507 1.683391568458696 -0.02566388539198222 1.657514196707461 -0.07662317410436512 0.09999999999999999 -0.3204806320549309 -0.3667517501466458 0.1195224512709739 0.01140269288745724 -0.7055792403861696 -0.0120042834915146 -0.9155541179588838 0.04745806930099333 0.0132288463782203 1.282238849370832 1.35044257798389 -0.2162673712479082 1.683932718247967 -0.05914931387957129 1.656944496589611 -0.1200736048832677 0.1 -0.3204806320549076 -0.3667517501466647 0.1195224512709745 0.01140269288746192 -0.7055792403861701 -0.01200428349153332 -0.9155541179588854 0.04745806930099331 0.01797465330831963 1.267029457325143 1.333037248009169 -0.2105950664724658 1.684473868037238 -0.09263474236716035 1.656374796471762 -0.1635240356621702 0.1 -0.320480632054931 -0.3667517501466647 0.1195224512709728 0.01140269288745725 -0.7055792403861697 -0.01200428349151461 -0.9155541179588836 0.04745806930099331 0.02272046023841897 1.251820065279454 1.315631918034448 -0.2049227616970233 1.685015017826509 -0.1261201708547494 1.655805096353912 -0.2069744664410727 0.09999999999999999 -0.3204806320549304 -0.366751750146664 0.1195224512709737 0.0114026928874619 -0.7055792403861685 -0.0120042834915333 -0.9155541179588821 0.0474580693009934 0.0274662671685183 1.236610673233766 1.298226588059727 -0.1992504569215808 1.68555616761578 -0.1596055993423385 1.655235396236063 -0.2504248972199752 0.09999999999999999 -0.3204806320549077 -0.3667517501466648 0.1195224512709746 0.01140269288745725 -0.7055792403861706 -0.01200428349150993 -0.9155541179588835 0.04745806930099329 0.03221207409861764 1.221401281188077 1.280821258085007 -0.1935781521461383 1.686097317405052 -0.1930910278299275 1.654665696118213 -0.2938753279988778 0.09999999999999999 -0.3204806320549302 -0.366751750146645 0.1195224512709742 0.01140269288748061 -0.7055792403861663 -0.01200428349153797 -0.9155541179588832 0.04745806930099343 0.03695788102871697 1.206191889142389 1.263415928110286 -0.1879058473706958 1.686638467194323 -0.2265764563175166 1.654095996000364 -0.3373257587777803 0.09999999999999999 -0.3204806320549077 -0.3667517501466648 0.1195224512709746 0.01140269288746193 -0.7055792403861711 -0.01200428349150993 -0.9155541179588846 0.04745806930099329 0.04170368795881631 1.1909824970967 1.246010598135565 -0.1822335425952534 1.687179616983594 -0.2600618848051057 1.653526295882514 -0.3807761895566829 0.1 -0.3204806320549307 -0.3667517501466643 0.1195224512709721 0.01140269288745723 -0.7055792403861703 -0.01200428349153331 -0.9155541179588846 0.04745806930099336 0.04644949488891564 1.175773105051011 1.228605268160844 -0.1765612378198109 1.687720766772865 -0.2935473132926947 1.652956595764665 -0.4242266203355854 0.1 -0.3204806320549307 -0.3667517501466643 0.1195224512709744 0.01140269288746191 -0.7055792403861667 -0.01200428349151459 -0.9155541179588823 0.04745806930099336 0.05119530181901498 1.160563713005323 1.211199938186124 -0.1708889330443684 1.688261916562136 -0.3270327417802838 1.652386895646815 -0.4676770511144879 0.1 -0.3204806320549072 -0.3667517501466409 0.1195224512709744 0.01140269288745723 -0.7055792403861703 -0.01200428349153331 -0.9155541179588823 0.04745806930099336 0.05594110874911432 1.145354320959634 1.193794608211403 -0.1652166282689259 1.688803066351407 -0.3605181702678729 1.651817195528966 -0.5111274818933904 0.09999999999999999 -0.3204806320549302 -0.3667517501466637 0.1195224512709736 0.01140269288746189 -0.7055792403861691 -0.01200428349151458 -0.9155541179588821 0.04745806930099343 0.06068691567921365 1.130144928913946 1.176389278236682 -0.1595443234934835 1.689344216140678 -0.3940035987554619 1.651247495411116 -0.5545779126722929 0.09999999999999999 -0.3204806320549077 -0.3667517501466648 0.1195224512709728 0.01140269288745725 -0.7055792403861688 -0.01200428349153333 -0.9155541179588846 0.04745806930099329 0.06543272260931299 1.114935536868257 1.158983948261961 -0.153872018718041 1.689885365929949 -0.427489027243051 1.650677795293267 -0.5980283434511955 0.1 -0.3204806320549307 -0.3667517501466643 0.1195224512709744 0.01140269288746191 -0.705579240386169 -0.01200428349151459 -0.9155541179588834 0.04745806930099336 0.07017852953941232 1.099726144822568 1.14157861828724 -0.1481997139425985 1.69042651571922 -0.4609744557306401 1.650108095175417 -0.641478774230098 0.1 -0.3204806320549307 -0.3667517501466643 0.1195224512709738 0.01140269288745723 -0.7055792403861703 -0.01200428349153331 -0.9155541179588834 0.04745806930099336 0.07492433646951166 1.08451675277688 1.12417328831252 -0.142527409167156 1.690967665508492 -0.4944598842182291 1.649538395057567 -0.6849292050090006 0.1 -0.3204806320549072 -0.3667517501466456 0.1195224512709744 0.01140269288748063 -0.7055792403861679 -0.01200428349153331 -0.9155541179588834 0.04745806930099336 0.079670143399611 1.069307360731191 1.106767958337799 -0.1368551043917136 1.691508815297763 -0.5279453127058182 1.648968694939718 -0.7283796357879031 0.1 -0.3204806320549307 -0.3667517501466643 0.1195224512709721 0.01140269288746191 -0.7055792403861703 -0.01200428349151459 -0.9155541179588834 0.04745806930099336 0.08441595032971033 1.054097968685503 1.089362628363079 -0.1311827996162711 1.692049965087034 -0.5614307411934073 1.648398994821868 -0.7718300665668056 0.1 -0.3204806320549072 -0.3667517501466409 0.1195224512709744 0.01140269288745723 -0.705579240386169 -0.01200428349153331 -0.9155541179588834 0.04745806930099336 0.08916175725980967 1.038888576639814 1.071957298388358 -0.1255104948408286 1.692591114876305 -0.5949161696809964 1.647829294704019 -0.8152804973457082 0.1 -0.3204806320549307 -0.3667517501466643 0.1195224512709744 0.01140269288746191 -0.705579240386169 -0.01200428349151459 -0.9155541179588834 0.04745806930099336 0.093907564189909 1.023679184594125 1.054551968413637 -0.1198381900653861 1.693132264665576 -0.6284015981685854 1.647259594586169 -0.8587309281246107 0.1 -0.3204806320549259 -0.3667517501466643 0.1195224512709744 0.01140269288745723 -0.705579240386169 -0.01200428349153331 -0.9155541179588834 0.04745806930099336 0.09865337112000834 1.008469792548437 1.037146638438917 -0.1141658852899436 1.693673414454847 -0.6618870266561745 1.64668989446832 -0.9021813589035133 0.1 -0.3204806320549119 -0.3667517501466456 0.1195224512709741 0.01140269288746191 -0.705579240386169 -0.01200428349151459 -0.9155541179588834 0.04745806930099336 0.1033991780501077 0.9932604005027481 1.019741308464196 -0.1084935805145012 1.694214564244118 -0.6953724551437636 1.64612019435047 -0.9456317896824158 0.09999999999999999 -0.3204806320549241 -0.3667517501466621 0.1195224512709716 0.01140269288745717 -0.7055792403861649 -0.01200428349153324 -0.915554117958878 0.04745806930099364 0.108144984980207 0.9780510084570595 1.002335978489475 -0.1028212757390587 1.694755714033389 -0.7288578836313526 1.645550494232621 -0.9890822204613183 0.1 -0.3204806320549241 -0.3667517501466675 0.1195224512709752 0.01140269288746201 -0.7055792403861753 -0.0120042834915147 -0.9155541179588914 0.04745806930099294 0.1128907919103063 0.9628416164113709 0.9849306485147545 -0.09714897096361622 1.69529686382266 -0.7623433121189417 1.644980794114771 -1.032532651240221 0.09999999999999999 -0.3204806320549231 -0.3667517501466547 0.1195224512709748 0.0114026928874573 -0.7055792403861731 -0.01200428349153338 -0.9155541179588933 0.04745806930099308 0.1176365988404057 0.9476322243656823 0.9675253185400339 -0.09147666618817374 1.695838013611932 -0.7958287406065307 1.644411093996922 -1.075983082019123 0.09999999999999999 -0.3204806320549175 -0.366751750146653 0.1195224512709724 0.01140269288748049 -0.7055792403861607 -0.01200428349150977 -0.9155541179588585 0.04745806930099392 0.122382405770505 0.9324228323199937 0.9501199885653132 -0.08580436141273126 1.696379163401203 -0.8293141690941198 1.643841393879072 -1.119433512798026 0.09999999999999999 -0.3204806320549231 -0.3667517501466594 0.1195224512709745 0.01140269288746198 -0.7055792403861731 -0.01200428349153806 -0.9155541179588981 0.04745806930099308 0.1271282127006043 0.9172134402743051 0.9327146585905925 -0.08013205663728878 1.696920313190474 -0.8627995975817089 1.643271693761223 -1.162883943576928 0.09999999999999999 -0.320480632054925 -0.3667517501466616 0.1195224512709752 0.01140269288745737 -0.7055792403861773 -0.01200428349151006 -0.9155541179588848 0.04745806930099281 0.1318740196307037 0.9020040482286165 0.9153093286158719 -0.07445975186184631 1.697461462979745 -0.8962850260692979 1.642701993643373 -1.206334374355831 0.1 -0.3204806320549166 -0.3667517501466519 0.1195224512709721 0.01140269288746174 -0.7055792403861587 -0.01200428349153313 -0.9155541179588793 0.04745806930099405 0.136619826560803 0.8867946561829279 0.8979039986411512 -0.06878744708640383 1.698002612769016 -0.929770454556887 1.642132293525524 -1.249784805134734 0.1 -0.3204806320549241 -0.3667517501466605 0.1195224512709749 0.01140269288745733 -0.7055792403861753 -0.0120042834915147 -0.9155541179589008 0.04745806930099294 0.1413656334909023 0.8715852641372392 0.8804986686664306 -0.06311514231096135 1.698543762558287 -0.9632558830444761 1.641562593407674 -1.293235235913636 0.09999999999999999 -0.3204806320549222 -0.3667517501466583 0.1195224512709742 0.01140269288746194 -0.7055792403861711 -0.01200428349153334 -0.9155541179588766 0.04745806930099322 0.1461114404210016 0.8563758720915506 0.8630933386917099 -0.05744283753551888 1.699084912347558 -0.9967413115320651 1.640992893289825 -1.336685666692539 0.1 -0.3204806320549241 -0.3667517501466605 0.1195224512709747 0.01140269288745733 -0.7055792403861753 -0.0120042834915147 -0.9155541179589008 0.04745806930099294 0.150857247351101 0.841166480045862 0.8456880087169892 -0.0517705327600764 1.699626062136829 -1.030226740019654 1.640423193171975 -1.380136097471441 0.1 -0.3204806320549166 -0.3667517501466519 0.1195224512709722 0.01140269288746174 -0.7055792403861564 -0.01200428349153313 -0.915554117958856 0.04745806930099405 0.1556030542812003 0.8259570880001734 0.8282826787422686 -0.04609822798463392 1.7001672119261 -1.063712168507243 1.639853493054126 -1.423586528250344 0.1 -0.3204806320549241 -0.3667517501466605 0.1195224512709749 0.01140269288745733 -0.7055792403861729 -0.0120042834915147 -0.9155541179589008 0.04745806930099294 0.1603488612112996 0.8107476959544848 0.8108773487675479 -0.04042592320919144 1.700708361715371 -1.097197596994833 1.639283792936276 -1.467036959029246 0.1 -0.3204806320549241 -0.3667517501466605 0.119522451270975 0.01140269288746201 -0.7055792403861963 -0.01200428349153342 -0.9155541179588821 0.04745806930099294 0.1650946681413989 0.7955383039087962 0.7934720187928272 -0.03475361843374897 1.701249511504642 -1.130683025482422 1.638714092818427 -1.510487389808149 0.1 -0.3204806320549241 -0.3667517501466605 0.1195224512709747 0.01140269288745733 -0.7055792403861729 -0.0120042834915147 -0.9155541179589008 0.04745806930099294 0.1698404750714983 0.7803289118631076 0.7760666888181066 -0.02908131365830649 1.701790661293913 -1.164168453970011 1.638144392700577 -1.553937820587051 0.1 -0.3204806320549166 -0.3667517501466519 0.1195224512709721 0.01140269288746174 -0.7055792403861564 -0.01200428349153313 -0.9155541179588607 0.04745806930099405 0.1745862820015976 0.765119519817419 0.7586613588433859 -0.02340900888286401 1.702331811083184 -1.1976538824576 1.637574692582728 -1.597388251365954 0.1 -0.3204806320549241 -0.3667517501466605 0.1195224512709749 0.01140269288745733 -0.7055792403861729 -0.0120042834915147 -0.9155541179589008 0.04745806930099294 0.1793320889316969 0.7499101277717304 0.7412560288686653 -0.01773670410742154 1.702872960872455 -1.231139310945189 1.637004992464878 -1.640838682144856 0.1 -0.3204806320549241 -0.3667517501466605 0.1195224512709747 0.01140269288746201 -0.7055792403861729 -0.01200428349153342 -0.9155541179588774 0.04745806930099294 0.1840778958617963 0.7347007357260418 0.7238506988939446 -0.01206439933197907 1.703414110661726 -1.264624739432778 1.636435292347029 -1.684289112923759 0.1 -0.3204806320549166 -0.3667517501466519 0.1195224512709719 0.01140269288745707 -0.705579240386161 -0.01200428349151442 -0.9155541179588793 0.04745806930099405 0.1888237027918956 0.7194913436803532 0.7064453689192239 -0.00639209455653659 1.703955260450997 -1.298110167920367 1.635865592229179 -1.727739543702661 0.1 -0.3204806320549241 -0.3667517501466605 0.1195224512709749 0.01140269288746201 -0.7055792403861729 -0.01200428349153342 -0.9155541179588821 0.04745806930099294 0.1935695097219949 0.7042819516346646 0.6890400389445033 -0.0007197897810941141 1.704496410240268 -1.331595596407956 1.63529589211133 -1.771189974481564 0.09999999999999999 -0.3204806320549222 -0.3667517501466583 0.1195224512709741 0.01140269288745726 -0.7055792403861687 -0.01200428349150995 -0.9155541179588954 0.04745806930099322 0.1983153166520943 0.689072559588976 0.6716347089697826 0.004952514994348361 1.705037560029539 -1.365081024895545 1.63472619199348 -1.814640405260467 0.1 -0.3204806320549184 -0.3667517501466541 0.1195224512709727 0.01140269288746181 -0.7055792403861606 -0.01200428349153788 -0.9155541179588848 0.04745806930099378 0.2030611235821936 0.6738631675432873 0.6542293789950619 0.01062481976979084 1.70557870981881 -1.398566453383134 1.634156491875631 -1.858090836039369 0.09999999999999999 -0.3204806320549222 -0.3667517501466583 0.1195224512709742 0.01140269288745726 -0.7055792403861687 -0.01200428349150995 -0.9155541179588766 0.04745806930099322 0.2078069305122929 0.6586537754975987 0.6368240490203413 0.01629712454523331 1.706119859608081 -1.432051881870723 1.633586791757781 -1.901541266818272 0.1 -0.3204806320549241 -0.3667517501466605 0.1195224512709747 0.01140269288746201 -0.7055792403861776 -0.01200428349153342 -0.9155541179589008 0.04745806930099294 0.2274379860180953 0.6358338284747767 0.5189362465535263 0.01222222461305175 1.702540152139279 -1.563307079460252 1.393514948911132 -1.88565670157786 0.1 -0.1162441164514927 -0.6005168822021347 -0.02075741638536522 -0.01823492102981271 -0.6686099866139853 -1.222918669735769 0.08091549247424326 0.1963105550580238 0.3024963870331808 0.5713409958523319 0.07615851979349098 0.0393671790949615 1.656925736274859 -1.82734083894778 -0.09854922902611629 -1.369998792115179 0.09999999999999999 -0.0859235365398775 -0.5899109503692257 0.03616511158618217 -0.06077189927780678 -0.3517710954626672 -1.98787098813545 0.687008919040312 0.7505840101508549 0.3828825894239327 0.1465777788727849 0.175116898238799 0.5976669820147329 1.519930391573458 -1.033507971533735 -1.732121083376809 -0.8741646653785304 0.09999999999999999 -0.5284031392785561 0.1231036863319876 0.6945219282855452 -0.1704214661559405 0.9875237836902369 -2.032154531209236 0.6168149657405529 0.8038620239075195 0.3829423811202455 0.1306685832050322 0.2001079060665837 0.6209233680135996 1.516140855017807 -0.987160715550448 -1.732188781664747 -0.878389680010028 0.002026716639734185 -0.5392626998899832 0.8471024328086966 0.7883051893599609 -0.1284512276427893 1.571 -0.002294720757338492 -0.1432123185130151 0.02950175428598786 0.3830021728165584 0.1147593875372795 0.2250989138943684 0.6441797540124663 1.512351318462157 -0.9408134595671607 -1.732256479952685 -0.8826146946415256 0.002026716639739811 -0.5392626998899777 0.8471024328086876 0.7883051893599534 -0.1284512276427505 1.571 -0.00229472075733847 -0.1432123185130138 0.02950175428598814 0.3830619645128713 0.09885019186952682 0.2500899217221531 0.667436140011333 1.508561781906506 -0.8944662035838733 -1.732324178240623 -0.8868397092730234 0.00202671663973793 -0.5392626998899777 0.8471024328086886 0.7883051893599534 -0.1284512276427881 1.571 -0.00229472075733847 -0.1432123185130175 0.02950175428598814 0.3831217562091841 0.08294099620177414 0.2750809295499378 0.6906925260101997 1.504772245350856 -0.8481189476005859 -1.73239187652856 -0.891064723904521 0.002026716639736048 -0.5392626998899772 0.8471024328086876 0.7883051893599534 -0.1284512276427505 1.571 -0.002294720757308365 -0.1432123185130138 0.02950175428598814 0.383181547905497 0.06703180053402145 0.3000719373777225 0.7139489120090664 1.500982708795205 -0.8017716916172986 -1.732459574816498 -0.8952897385360187 0.002026716639739811 -0.5392626998899777 0.8471024328086876 0.7883051893599534 -0.1284512276427881 1.571 -0.00229472075733847 -0.1432123185130175 0.02950175428598814 0.3832413396018099 0.05112260486626877 0.3250629452055072 0.7372052980079331 1.497193172239554 -0.7554244356340113 -1.732527273104436 -0.8995147531675163 0.002026716639737934 -0.5392626998899789 0.8471024328086915 0.7883051893599552 -0.1284512276427884 1.571 -0.002294720757346002 -0.1432123185130141 0.02950175428598808 0.3833011312981228 0.03521340919851609 0.3500539530332919 0.7604616840067998 1.493403635683904 -0.709077179650724 -1.732594971392374 -0.903739767799014 0.002026716639739816 -0.5392626998899787 0.8471024328086896 0.7883051893599552 -0.1284512276427508 1.571 -0.002294720757338476 -0.1432123185130179 0.02950175428598808 0.3833609229944356 0.01930421353076341 0.3750449608610766 0.7837180700056665 1.489614099128253 -0.6627299236674367 -1.732662669680311 -0.9079647824305117 0.002026716639734166 -0.5392626998899773 0.8471024328086876 0.7883051893599534 -0.1284512276427881 1.571 -0.002294720757300838 -0.1432123185130175 0.02950175428598814 0.3834207146907485 0.003395017863010726 0.4000359686888613 0.8069744560045332 1.485824562572603 -0.6163826676841493 -1.732730367968249 -0.9121897970620093 0.002026716639739811 -0.5392626998899775 0.8471024328086895 0.7883051893599534 -0.1284512276427505 1.571 -0.002294720757345997 -0.1432123185130138 0.02950175428598814 0.3834805063870614 -0.01251417780474195 0.4250269765166459 0.8302308420033999 1.482035026016952 -0.5700354117008619 -1.732798066256187 -0.9164148116935069 0.00202671663973793 -0.5392626998899773 0.8471024328086838 0.7883051893599534 -0.1284512276427881 1.571 -0.00229472075733847 -0.1432123185130138 0.02950175428598814 0.3835402980833743 -0.02842337347249464 0.4500179843444306 0.8534872280022666 1.478245489461301 -0.5236881557175747 -1.732865764544125 -0.9206398263250046 0.002026716639739816 -0.5392626998899789 0.8471024328086896 0.7883051893599552 -0.1284512276427809 1.571 -0.002294720757338476 -0.1432123185130179 0.02950175428598808 0.3836000897796871 -0.04433256914024732 0.4750089921722153 0.8767436140011333 1.474455952905651 -0.4773408997342873 -1.732933462832062 -0.9248648409565023 0.002026716639736048 -0.5392626998899775 0.8471024328086895 0.7883051893599534 -0.128451227642758 1.571 -0.002294720757308365 -0.1432123185130175 0.02950175428598814 0.383659881476 -0.060241764808 0.5 0.9 1.47066641635 -0.430993643751 -1.73300116112 -0.9290898555879999 0.002026716639737934 -0.5392626998899787 0.8471024328086896 0.7883051893599552 -0.1284512276427809 1.571 -0.002294720757338476 -0.1432123185130141 0.02950175428598808 </data>\n<description><![CDATA[{"planning_method": "PlanToConfigurations", "planner": "CBiRRTPlanner", "deterministic_endpoint": false, "deterministic": false, "smooth": true, "constrained": false}]]></description>\n</trajectory>\n'
p193
sVcbpose
p194
(lp195
cnumpy.core.multiarray
scalar
p196
(cnumpy
dtype
p197
(S'f8'
p198
I0
I1
tp199
Rp200
(I3
S'<'
p201
NNNI-1
I-1
I0
tp202
bS'\x00\x00\x00\x00\x00\x00\x00\x00'
p203
tp204
Rp205
ag196
(g200
S'\x00\x00\x00\x00\x00\x00\x00\x00'
p206
tp207
Rp208
ag196
(g200
S'\x00\x00\x00\x00\x00\x00\x00\x00'
p209
tp210
Rp211
asVpose_current
p212
cnumpy.core.multiarray
_reconstruct
p213
(cnumpy
ndarray
p214
(I0
tp215
S'b'
p216
tp217
Rp218
(I1
(I4
I4
tp219
g200
I00
S'\x00\x00\x00\x00\x00\x00\xf0?\x00\x00\x00\x00\x00\x00\x00\x00\x00\x00\x00\x00\x00\x00\x00\x00\x1e\xa0y9rk\xe1?\x00\x00\x00\x00\x00\x00\x00\x00\x00\x00\x00\x00\x00\x00\xf0?\x00\x00\x00\x00\x00\x00\x00\x00\x7fW\x83\xf1>@\xcd?\x00\x00\x00\x00\x00\x00\x00\x00\x00\x00\x00\x00\x00\x00\x00\x00\x00\x00\x00\x00\x00\x00\xf0?\xc6\xca\xa1E\xb6\xf3\xe9?\x00\x00\x00\x00\x00\x00\x00\x00\x00\x00\x00\x00\x00\x00\x00\x00\x00\x00\x00\x00\x00\x00\x00\x00\x00\x00\x00\x00\x00\x00\xf0?'
p220
tp221
bsVpose_end
p222
g213
(g214
(I0
tp223
g216
tp224
Rp225
(I1
(I8
tp226
g200
I00
S"333333\xc3?\xfc\x04\xedaq0\xe7?\xe9\xaf\xfc\x9e\xfd\xed\xa9\xbf\xf6\xb5pQ\x14\xd5\xfb\xbf/\x01\xf06\x0c\x02\x02@\xde\x0c\xccD\xf0\x13\xf8\xbf8\xdc\xa2'\xc0\x0b\x9a\xbfM}\xc5\xbft'\x06@"
p227
tp228
bsVgpose
p229
g213
(g214
(I0
tp230
g216
tp231
Rp232
(I1
(I4
I4
tp233
g200
I00
S'\x00\x00\x00\x00\x00\x00\xf0?\x00\x00\x00\x00\x00\x00\x00\x00\x00\x00\x00\x00\x00\x00\x00\x00\x1e\xa0y9rk\xe1?\x00\x00\x00\x00\x00\x00\x00\x00\x00\x00\x00\x00\x00\x00\xf0?\x00\x00\x00\x00\x00\x00\x00\x00\x7fW\x83\xf1>@\xcd?\x00\x00\x00\x00\x00\x00\x00\x00\x00\x00\x00\x00\x00\x00\x00\x00\x00\x00\x00\x00\x00\x00\xf0?\xc6\xca\xa1E\xb6\xf3\xe9?\x00\x00\x00\x00\x00\x00\x00\x00\x00\x00\x00\x00\x00\x00\x00\x00\x00\x00\x00\x00\x00\x00\x00\x00\x00\x00\x00\x00\x00\x00\xf0?'
p234
tp235
bsVendpose
p236
g213
(g214
(I0
tp237
g216
tp238
Rp239
(I1
(I8
tp240
g200
I00
S"333333\xc3?\xfc\x04\xedaq0\xe7?\xe9\xaf\xfc\x9e\xfd\xed\xa9\xbf\xf6\xb5pQ\x14\xd5\xfb\xbf/\x01\xf06\x0c\x02\x02@\xde\x0c\xccD\xf0\x13\xf8\xbf8\xdc\xa2'\xc0\x0b\x9a\xbfM}\xc5\xbft'\x06@"
p241
tp242
bsVbase_traj
p243
I01
sVcpose
p244
g213
(g214
(I0
tp245
g216
tp246
Rp247
(I1
(I8
tp248
g200
I00
S'\x89\x81\xee,\xe2\x8d\xd8?<Ih3\x02\xd8\xae\xbf\x01\x00\x00\x00\x00\x00\xe0?\xcc\xcc\xcc\xcc\xcc\xcc\xec?\xc1\xc7\x18\x82\xd9\x87\xf7?^q,]f\x95\xdb\xbf\xfd\x0b\xefl_\xba\xfb\xbfaw\x19\xa6\x1a\xbb\xed\xbf'
p249
tp250
bsVt
p251
g172
ssg141
ccollections
OrderedDict
p252
((lp253
(lp254
g194
a(dp255
S'type'
p256
VBasePose
p257
sS'value'
p258
g195
saa(lp259
g167
a(dp260
g256
VBasePose
p261
sg258
g168
saa(lp262
g212
ag218
aa(lp263
g222
ag225
aa(lp264
g243
a(dp265
g256
VBaseTrajectory
p266
sg258
I01
saa(lp267
g244
a(dp268
g256
VManipPose
p269
sg258
g247
saa(lp270
g229
a(dp271
g256
VManipPose
p272
sg258
g232
saa(lp273
g192
a(dp274
g256
VManipTrajectory
p275
sg258
g193
saa(lp276
g251
ag172
aa(lp277
g179
a(dp278
g256
VGripperCloseTrajectory
p279
sg258
g180
saa(lp280
g236
a(dp281
g256
VManipPose
p282
sg258
g239
saa(lp283
g171
a(dp284
g256
VManipTrajectory
p285
sg258
g172
saatp286
Rp287
sg142
(lp288
Vbase_traj
p289
aVtraj1
p290
aVgripper_close_traj
p291
aVtraj2
p292
asg143
g40
((lp293
g77
ag79
ag80
ag81
ag78
ag82
ag83
atp294
Rp295
sg145
I01
sbsssS'_Graph__root_node'
p296
g29
sb.