(lp0
(F0.09686577320098877
F6.487912178039551
F0.049972862005233765
F0.023
F0.019675016403198242
F0.47856783105621337
F1.320184018143799
F1.4006117964373779
F-0.1986779906162262
F1.7203367039074706
F-1.4194079208371124e-05
F1.6601259456680297
F-0.0010754775209307673
tp1
a.