(lp0
(lp1
VManipTrajectory
p2
aS'<trajectory>\n<configuration>\n<group name="joint_values fetch 14 13 12 15 4 5 16 17" offset="0" dof="8" interpolation="linear"/>\n<group name="joint_velocities fetch 14 13 12 15 4 5 16 17" offset="8" dof="8" interpolation="next"/>\n<group name="deltatime" offset="16" dof="1" interpolation=""/>\n</configuration>\n<data count="34">\n0.04997286200523376 1.320184018143799 1.400611796437378 -0.1986779906162263 1.720336703907472 -1.41940792085626e-05 1.66012594566803 -0.001075477520931736 0 0 0 0 0 0 0 0 0 0.05262403592418979 1.291155968172105 1.38479031279559 -0.2179380793043921 1.710937333756685 -0.03130363310010822 1.642215111066135 0.01208011036673689 0.1 -1.094913078472213 -0.5967727552184848 -0.7264739800906739 -0.3545361578725879 -1.180210728431601 -0.675581276423685 0.4962174602580943 0.02651173918956036 0.06146625049640643 1.191775458132887 1.328583899797765 -0.2801452572662422 1.6739175473877 -0.1364594160085241 1.577925775723376 0.05162097451104172 0.09999999999999999 -1.123932350064029 -0.635659907806727 -0.7035248630734771 -0.4186709796130215 -1.189247128641604 -0.7270727804408259 0.447182816265817 0.08842214572216636 0.07805956786685286 1.004963126821861 1.222685162447531 -0.3966345226447191 1.603750699352035 -0.3338929522661076 1.456721935464663 0.1252917330280844 0.1 -1.125828712489692 -0.638201120282587 -0.7020251754236339 -0.4228620864001313 -1.189837642768305 -0.7304376668801773 0.4439784816522231 0.1659331737044643 0.1003489035503627 0.7540149718808223 1.080423097276136 -0.5531046165957716 1.509478953864745 -0.5991024786106083 1.293897302230505 0.2242373698159542 0.1 -1.12586646145177 -0.638251705620117 -0.7019953226637111 -0.4229455145091396 -1.189849397533678 -0.7305046482593029 0.4439146962153392 0.2228933568350983 0.104843907472094 0.7031212018187407 1.051350366837172 -0.5844331358954037 1.489835391495098 -0.6526753229760713 1.260553563605222 0.2437080428245605 0.1 -1.132229714328692 -0.646778755818451 -0.6969631138289568 -0.4370087926882448 -1.19183087041288 -0.7417955402459413 0.4331625366214814 0.04495003921731286 0.1086459955145074 0.6565372101388638 1.022021374949654 -0.6081362354526308 1.465405937933781 -0.6990907499111636 1.226076273507703 0.2542030297347954 0.1 -1.22522127736703 -0.7713917079337582 -0.6234232162120392 -0.6425272978636712 -1.22078779915968 -0.9067988356112238 0.2760321905531934 0.03802088042413429 0.1105017884933861 0.632249187659602 1.005984617908032 -0.6190419062831143 1.450685073718235 -0.7224402540850956 1.206900531967537 0.2577857994326531 0.09596812517206385 -1.256 -0.8293045208384313 -0.5639620341583089 -0.7612561076355155 -1.207466654294285 -0.9916299853153249 0.1852748096042626 0.0193375975153358 0.1578323513139629 0.01269625349105041 0.5968621998290996 -0.8971373832397291 1.075050163053524 -1.317998635917178 0.7176780535158392 0.3490566621129362 0.09595174782349032 -1.256 -0.8294008933986289 -0.5637741342089798 -0.761512732448011 -1.207356605590045 -0.9917852035677158 0.1850305231469511 0.4932746291150889 0.1640397424151482 -0.1229830837122446 0.4851543707820425 -0.9174521130896375 0.9307468206553411 -1.423345754513256 0.5723703052957015 0.316743393996275 0.0574625686106269 -1.256 -1.034092855811034 -0.1880559060607294 -1.335833456943776 -0.9752109914748397 -1.345131362862088 -0.2991278229323545 0.1080249500026234 0.1579368835513015 -0.2688325905754929 0.3022372413635617 -0.8399731799141774 0.5886576939988336 -1.470028538507136 0.2973715419688938 0.1499361742741836 -0.02713459039939402 -0.6484774950527669 -0.8132879187500972 0.344487585769435 -1.521 -0.2075614479439082 -1.222702174454272 -0.7416598816718768 0.2249106684132199 0.1570340910792659 -0.2900596336174809 0.2755547984444354 -0.8286418402474884 0.5386635525498238 -1.476770987751262 0.2572079424303212 0.1255729309665935 -0.02746616523791284 -0.6458023186535421 -0.8117750301079509 0.3447397461683041 -1.521 -0.2051293412204266 -1.221919871560845 -0.7412167105347612 0.03286925802038779 0.1527319667157778 -0.3555829646889179 0.1773738016541597 -0.7969948603636677 0.3386162665544608 -1.49692074195824 0.09773477786983002 0.03083548323951317 -0.03270992217818536 -0.4981871464228005 -0.746489987979496 0.2406183926154691 -1.521 -0.1532026590429351 -1.212506743541272 -0.7203079875636464 0.1315235279390947 0.1516384125351253 -0.3658935730650049 0.1461683127178993 -0.8037679909641499 0.2654758162491415 -1.505564916407126 0.03780580311635198 -0.002131064100008052 -0.02274112207170028 -0.214415351212128 -0.6489370584118499 -0.1408513565383953 -1.521 -0.1797608475456646 -1.24625935743536 -0.6855593354169587 0.04808708106858599 0.1520456847565722 -0.3512985758439558 0.1371216461774608 -0.8359352609496755 0.2292345985673916 -1.513311983651317 0.005102774269208368 -0.01612273005233253 0.01709272172531563 0.612534351581527 -0.3796776346986855 -1.350021350762245 -1.521 -0.3251350266950153 -1.372506501114444 -0.5872132691667876 0.02382723055999334 0.1529257567186771 -0.3202905925817053 0.1181362192023485 -0.9042430901305556 0.1526524623505544 -1.529850854935743 -0.06406919847803377 -0.04554308450033623 0.01747913443641055 0.6158504433507004 -0.3770701087180836 -1.356663751059952 -1.521 -0.3284789960988326 -1.373826531172472 -0.5843185020160786 0.05034985944565237 0.1538752333391441 -0.2870594801710923 0.09788944484382524 -0.9774360611904689 0.07074987533943765 -1.547612471108608 -0.1380753245448906 -0.07694181998773081 0.01763258026921893 0.6171297369359271 -0.3759996469358647 -1.359255098584586 -1.521 -0.3298481670092054 -1.374356071712495 -0.5831009546724691 0.05384785470816356 0.1547810827886827 -0.2558178701043333 0.07906397844175037 -1.046221474035433 -0.005892816990732297 -1.564388218930344 -0.2073885503155914 -0.1061864231542964 0.0179768869132729 0.6200002566041785 -0.3735977107146125 -1.365069646646607 -1.521 -0.3329203562805476 -1.375544271632219 -0.5803689831866277 0.05038967280090069 0.1551618647819732 -0.2431605659477626 0.07165448516130277 -1.074067695020097 -0.03658811108113848 -1.571272804194031 -0.2352111877976305 -0.1177472051705493 0.01886834542418908 0.6271892872386998 -0.3671520216215548 -1.379823955845802 -1.521 -0.3411420055213082 -1.378655356275216 -0.5728548941388547 0.02018099545720328 0.1571505869555892 -0.1788336393740469 0.03484237837988391 -1.21550356301388 -0.1912059060565119 -1.606603334460673 -0.375605460949895 -0.1753854329164458 0.01956337837149784 0.6327942739980547 -0.3621265871981684 -1.39132727415242 -1.521 -0.3475520818552733 -1.381080938960523 -0.5669964729187335 0.1016553550133947 0.1591169250518933 -0.1153482024398405 -0.001430872349221349 -1.35508353463467 -0.3437073106996288 -1.641494877672769 -0.5140949153495423 -0.2321939416401405 0.0196116242435774 0.6331833454445899 -0.3617777455104851 -1.392125779641492 -1.521 -0.3479970387800157 -1.381249311341151 -0.5665898092607469 0.1002639083781177 0.1610282254463095 -0.05377917634907003 -0.03654099800199802 -1.490443266776913 -0.4914936804398835 -1.675360744564257 -0.648322648971982 -0.2871975163835775 0.01967087969625712 0.6336612019677624 -0.3613492990708961 -1.393106501974471 -1.521 -0.3485435336999351 -1.3814561058544 -0.566090346029928 0.09716395117702477 0.1618859967045419 -0.02643773413395403 -0.05199053248682604 -1.550539369529675 -0.556889815040138 -1.690457328314977 -0.7077609472162458 -0.3114355952694285 0.01995026298949389 0.6359142457485489 -0.3593292186925673 -1.397730505720042 -1.521 -0.3511202003788572 -1.382431120465237 -0.5637354288709898 0.04299548625920744 0.1629220785423596 -0.006371067088148722 -0.05697119612252377 -1.594456895770113 -0.5958139710461876 -1.704779150703856 -0.7450364797559774 -0.3206257933332901 0.0370623007839841 0.7178167038910466 -0.1781662867084791 -1.571 -1.392379177978338 -0.5123144425245814 -1.333405285610039 -0.3287480510464713 0.02795514082777756 0.1685027800263464 0.08376573601020873 -0.06489543069821918 -1.791663936552039 -0.7511321007182274 -1.777025706289833 -0.8990521182059537 -0.3422067349890025 0.04445724653937751 0.7180520386394725 -0.06312641003615951 -1.571 -1.237302586902048 -0.5755339077932766 -1.226926620091995 -0.1719191120494291 0.1255296249407549 0.1741161801697269 0.1744084445463178 -0.07284268624776249 -1.989977733476096 -0.9072929830041351 -1.849689508911809 -1.053912261358483 -0.3638795489056649 0.04446816995101854 0.7180523862631615 -0.06295647938763251 -1.571 -1.237073516196696 -0.5756272921487132 -1.226769335598918 -0.171687452871043 0.126234116437974 0.1784219881050113 0.2439272288219348 -0.07892869115240005 -2.142075244337251 -1.027048792929359 -1.905424325782406 -1.172674339420782 -0.3804890903138581 0.04447426015082424 0.7180525800760291 -0.06286173686243696 -1.571 -1.23694580093602 -0.5756793573278006 -1.226681643765944 -0.1715582944423817 0.09681572938329429 0.1806468080883528 0.2798419493533187 -0.08206725438278739 -2.22065167395233 -1.088909369106999 -1.934221045646797 -1.234023892791345 -0.3890622826750262 0.04448143305761573 0.718052808344669 -0.06275015114700963 -1.571 -1.236795380639493 -0.5757406785797403 -1.226578362204684 -0.1714061744135379 0.05001682343416815 0.1821514183572028 0.3039854757200744 -0.08403707990071697 -2.27347373583837 -1.130305627195753 -1.953656250918856 -1.275135779301736 -0.3946346033442497 0.04474915684781239 0.7180613283139708 -0.05858529141372246 -1.571 -1.231181046997698 -0.5780294519414159 -1.222723449288413 -0.1657283994372709 0.03362320934821175 0.1835656622427202 0.323345294061244 -0.08237775167587608 -2.315815338462448 -1.159123092686394 -1.97101490336491 -1.305093304720412 -0.3946866540879717 0.05247267477977895 0.7183071194542429 0.06156603623082231 -1.571 -1.069214093942974 -0.6440578840358649 -1.111513724470523 -0.001931238151596255 0.02695200676262108 0.1876479485325306 0.3715589046948552 -0.07015472277479998 -2.426329470592325 -1.235242351514207 -2.026351749869326 -1.386249233649194 -0.3815373031536054 0.05803123670876042 0.6853746289785702 0.1737549581534402 -1.571 -1.082063925344485 -0.7866341089868225 -1.153662087282034 0.1869229746437539 0.07034636036274797 0.1983770078917499 0.4799381425968963 -0.02025912632921718 -2.688794118929192 -1.418411180687054 -2.18429205590728 -1.586829251112684 -0.3151823617568395 0.06421951436179762 0.648711298161484 0.2986534853844544 -1.571 -1.096369482343434 -0.9453624416007629 -1.200585333803525 0.3971720138116465 0.1670685221749633 0.1994862148690842 0.4841666739954997 -0.008385265492218097 -2.705642978944318 -1.43207110495043 -2.205898352065036 -1.60377113118457 -0.2961278171386287 0.08065075793967477 0.3074577326304609 0.8633518322032951 -1.225085451504419 -0.993217016978634 -1.571 -1.231848966551309 1.385461412573651 0.01375321206731756 0.2189100177507313 0.5577381276346145 0.2 -3.000000000000001 -1.670951976217542 -2.584632228796568 -1.900221560819029 0.03838002069365043 0.08057054359755156 0.3051766973277112 0.8643886174469032 -1.221002156103077 -0.9908853467223754 -1.571 -1.229685680549422 1.387549003457706 0.2410782156152335 </data>\n</trajectory>\n'
p3
a(dp4
S'next_hl_state'
p5
ccopy_reg
_reconstructor
p6
(cStates.PDDLState
PDDLState
p7
c__builtin__
object
p8
Ntp9
Rp10
(dp11
S'_PDDLState__objDict'
p12
(dp13
sS'_PDDLState__trueSet'
p14
c__builtin__
set
p15
((lp16
S'(init)'
p17
aS'(ingripper object2 gripper)'
p18
aS'(crushed object2)'
p19
aS'(obstructs traj object3 object1)'
p20
aS'(delicate object11)'
p21
aS'(delicate object7)'
p22
aS'(delicate object3)'
p23
atp24
Rp25
sS'_PDDLState__falseSet'
p26
g15
((lp27
tp28
Rp29
sbsVobj
p30
S'object2'
p31
sVgripper
p32
S'gripper'
p33
sVtrajectory
p34
S'traj'
p35
sVpgpose
p36
cnumpy.core.multiarray
_reconstruct
p37
(cnumpy
ndarray
p38
(I0
tp39
S'b'
p40
tp41
Rp42
(I1
(I4
I4
tp43
cnumpy
dtype
p44
(S'f8'
p45
I0
I1
tp46
Rp47
(I3
S'<'
p48
NNNI-1
I-1
I0
tp49
bI00
S"\x00\x00\x00\x00\x00\x00\xf0?\x00\x00\x00\x00\x00\x00\x00\x00\x00\x00\x00\x00\x00\x00\x00\x00\x16\x18\xa8\xcb+b\xdd?\x00\x00\x00\x00\x00\x00\x00\x00\x00\x00\x00\x00\x00\x00\xf0?\x00\x00\x00\x00\x00\x00\x00\x00'\x04\x15<\xb7\xcd\xcd?\x00\x00\x00\x00\x00\x00\x00\x00\x00\x00\x00\x00\x00\x00\x00\x00\x00\x00\x00\x00\x00\x00\xf0?\xfe\xd4x\xe9&1\xe4?\x00\x00\x00\x00\x00\x00\x00\x00\x00\x00\x00\x00\x00\x00\x00\x00\x00\x00\x00\x00\x00\x00\x00\x00\x00\x00\x00\x00\x00\x00\xf0?"
p50
tp51
bsVrobot
p52
S'fetch'
p53
sVgripper_close_traj
p54
S'close'
p55
sS'current_hl_state'
p56
g6
(g7
g8
Ntp57
Rp58
(dp59
g12
(dp60
sg14
g15
((lp61
S'(empty gripper)'
p62
aS'(init)'
p63
aS'(revived)'
p64
aS'(obstructs traj object2 object3)'
p65
aS'(obstructs traj object3 object1)'
p66
aS'(delicate object11)'
p67
aS'(delicate object7)'
p68
aS'(delicate object3)'
p69
atp70
Rp71
sg26
g15
((lp72
tp73
Rp74
sbsS'attach'
p75
Vobj
p76
sVtraj0
p77
g3
sVt
p78
S'<trajectory>\n<configuration>\n<group name="joint_values fetch 14 13 12 15 4 5 16 17" offset="0" dof="8" interpolation="linear"/>\n<group name="joint_velocities fetch 14 13 12 15 4 5 16 17" offset="8" dof="8" interpolation="next"/>\n<group name="deltatime" offset="16" dof="1" interpolation=""/>\n</configuration>\n<data count="13">\n0.2330716539768629 0.4414059460618376 0.2000000000000007 -3.000000000000001 -1.409254610235438 -2.730841190585618 -1.663421166975387 -0.11104841670918 0 0 0 0 0 0 0 0 0 0.2320371869449477 0.4448271962391887 0.2003039227152523 -2.985469673720453 -1.379070898560149 -2.728745196032851 -1.654014847447227 -0.09814924761693157 -0.05212825952188087 0.1724016441626478 0.01531509626352977 0.73220372991058 1.521 0.1056201354245183 0.4739977692685424 0.6500074079813216 0.01984464935916407 0.2173908717205819 0.4903897409255773 0.1666267122606616 -2.761412122187348 -0.7740788316914233 -2.611162941713026 -1.391916032339574 0.3547391162251587 -0.03682204557087879 0.1145479986649713 -0.08466728723658956 0.5632991811705856 1.521 0.2956114941243689 0.658938058216294 1.138598733978586 0.3977594127999514 0.2141676773324228 0.5002682213757509 0.1572559930130059 -2.711158299796723 -0.6317744423989367 -2.580751632323593 -1.327585194626369 0.4683483840438395 -0.03445064968666253 0.1055847176564027 -0.1001575850649951 0.5371307535640176 1.521 0.3250469069246668 0.6875909074081592 1.214296320804609 0.09355975627382425 0.2054082504307619 0.5287351058894578 0.1301382791395557 -2.576506444135713 -0.236504512655337 -2.44943665758948 -1.149123808642363 0.7860192299132278 -0.0337063037556858 0.1095406659783974 -0.104349052882097 0.5181407869635994 1.521 0.5053004580949157 0.6867200048780525 1.222398468005808 0.2598750359918472 0.2045600940245242 0.531733549229358 0.1273712893851846 -2.563693772048058 -0.1984253247235692 -2.434977666255021 -1.13192224149717 0.8163803848769001 -0.03387797807555837 0.1197670582723597 -0.1105220894925488 0.5117775694230439 1.521 0.5775366286465751 0.6870835500672831 1.212718001825352 0.02503562651661265 0.2039068221609899 0.5340430351028725 0.1252400793234874 -2.553825129275676 -0.1690957767917137 -2.423840980543481 -1.118673161269677 0.839765296217014 -0.03387800271399637 0.1197675471090491 -0.1105223480216285 0.5117776002435668 1.521 0.5775369946583688 0.687083587951603 1.212717298983035 0.01928306898872812 0.1857974066534749 0.5980678800421581 0.06615910237374004 -2.280258332595525 0.6439423598586574 -2.115120238576352 -0.7513979206282269 1.488007564731634 -0.03387838742769224 0.1197751799858438 -0.1105263847902486 0.5117780814867744 1.521 0.5775427097018563 0.6870841794914101 1.212706324543217 0.5345418386918943 0.1734653347331127 0.6416708510683024 0.02592479298634431 -2.093969056864847 1.197591642019511 -1.904889399906163 -0.5012965529872208 1.929430567140895 -0.03387899523261968 0.1197872390837802 -0.1105327624365081 0.5117788417976131 1.521 0.5775517388360962 0.6870851140586328 1.212688986146685 0.364003472821074 0.1589602867602905 0.6929576125035433 -0.02139933174445018 -1.874855238576145 1.848794870271148 -1.657614876137753 -0.2071268309446812 2.448631799357698 -0.03387909796745874 0.1197892773849364 -0.1105338404245809 0.5117789703099165 1.521 0.5775532649945908 0.6870852720247977 1.212686055506776 0.4281415044389463 0.1566389547625367 0.7011653673076418 -0.02897291081550756 -1.839789123436119 1.953010873654031 -1.618042016529684 -0.1600490638369127 2.531722689088595 -0.03387911504926768 0.1197896162949996 -0.110534019662573 0.5117789916777664 1.521 0.5775535187502578 0.6870852982899671 1.212685568226788 0.06851808243450512 0.1509150574596951 0.7214053431435442 -0.04764834283147742 -1.753324977598449 2.209980775024324 -1.520464189180288 -0.04396724343767432 2.736600954301101 -0.03387964018819749 0.1198000352657894 -0.1105395299014342 0.5117796485806656 1.521 0.5775613198549829 0.6870861057490855 1.212670587981338 0.1689479956412186 0.15 0.72466344 -0.05064385 -1.73952133 2.25099986 -1.50486781 -0.02543545 2.76926565 -0.03393060564421459 0.1208112107232029 -0.1110743061680835 0.5118434019113447 1.521 0.5783184278071022 0.6871644707681168 1.21121673453925 0.02696849768289004 </data>\n</trajectory>\n'
p79
sVtraj2
p80
g79
sVpose_current
p81
g37
(g38
(I0
tp82
g40
tp83
Rp84
(I1
(I4
I4
tp85
g47
I00
S"\x00\x00\x00\x00\x00\x00\xf0?\x00\x00\x00\x00\x00\x00\x00\x00\x00\x00\x00\x00\x00\x00\x00\x00>?\x07\x19I\xe4\xe1?\x00\x00\x00\x00\x00\x00\x00\x00\x00\x00\x00\x00\x00\x00\xf0?\x00\x00\x00\x00\x00\x00\x00\x00'\x04\x15<\xb7\xcd\xcd?\x00\x00\x00\x00\x00\x00\x00\x00\x00\x00\x00\x00\x00\x00\x00\x00\x00\x00\x00\x00\x00\x00\xf0?\xfe\xd4x\xe9&1\xe4?\x00\x00\x00\x00\x00\x00\x00\x00\x00\x00\x00\x00\x00\x00\x00\x00\x00\x00\x00\x00\x00\x00\x00\x00\x00\x00\x00\x00\x00\x00\xf0?"
p86
tp87
bsVpose_end
p88
g37
(g38
(I0
tp89
g40
tp90
Rp91
(I1
(I8
tp92
g47
I00
S"333333\xc3?\xfc\x04\xedaq0\xe7?\xe9\xaf\xfc\x9e\xfd\xed\xa9\xbf\xf6\xb5pQ\x14\xd5\xfb\xbf/\x01\xf06\x0c\x02\x02@\xde\x0c\xccD\xf0\x13\xf8\xbf8\xdc\xa2'\xc0\x0b\x9a\xbfM}\xc5\xbft'\x06@"
p93
tp94
bsVgpose
p95
g37
(g38
(I0
tp96
g40
tp97
Rp98
(I1
(I4
I4
tp99
g47
I00
S"\x00\x00\x00\x00\x00\x00\xf0?\x00\x00\x00\x00\x00\x00\x00\x00\x00\x00\x00\x00\x00\x00\x00\x00>?\x07\x19I\xe4\xe1?\x00\x00\x00\x00\x00\x00\x00\x00\x00\x00\x00\x00\x00\x00\xf0?\x00\x00\x00\x00\x00\x00\x00\x00'\x04\x15<\xb7\xcd\xcd?\x00\x00\x00\x00\x00\x00\x00\x00\x00\x00\x00\x00\x00\x00\x00\x00\x00\x00\x00\x00\x00\x00\xf0?\xfe\xd4x\xe9&1\xe4?\x00\x00\x00\x00\x00\x00\x00\x00\x00\x00\x00\x00\x00\x00\x00\x00\x00\x00\x00\x00\x00\x00\x00\x00\x00\x00\x00\x00\x00\x00\xf0?"
p100
tp101
bsVendpose
p102
g37
(g38
(I0
tp103
g40
tp104
Rp105
(I1
(I8
tp106
g47
I00
S"333333\xc3?\xfc\x04\xedaq0\xe7?\xe9\xaf\xfc\x9e\xfd\xed\xa9\xbf\xf6\xb5pQ\x14\xd5\xfb\xbf/\x01\xf06\x0c\x02\x02@\xde\x0c\xccD\xf0\x13\xf8\xbf8\xdc\xa2'\xc0\x0b\x9a\xbfM}\xc5\xbft'\x06@"
p107
tp108
bsVcpose
p109
g37
(g38
(I0
tp110
g40
tp111
Rp112
(I1
(I8
tp113
g47
I00
S'\x00\x00\x00\x00\x0b\x96\xa9?`\x12\xeaFy\x1f\xf5?\x11rA\xea\xe7h\xf6?\x1e\xdb\x10\xc8Gn\xc9\xbf\xa4A\x96\xc7\x7f\x86\xfb?\x83\x19Udc\xc4\xed\xbe\x08*>9\xe0\x8f\xfa?\x0cF\xeb1\xe1\x9eQ\xbf'
p114
tp115
bsVtraj1
p116
S'<trajectory>\n<configuration>\n<group name="joint_values fetch 14 13 12 15 4 5 16 17" offset="0" dof="8" interpolation="quadratic"/>\n<group name="joint_velocities fetch 14 13 12 15 4 5 16 17" offset="8" dof="8" interpolation="linear"/>\n<group name="deltatime" offset="16" dof="1" interpolation=""/>\n<group name="iswaypoint" offset="17" dof="1" interpolation="next"/>\n</configuration>\n<data count="12">\n0.2189100177507313 0.5577381276346145 0.2000000000000001 -3.000000000000001 -1.670951976217542 -2.584632228796568 -1.900221560819029 0.03838002069365043 0 0 0 0 0 0 0 0 0 1 0.2189100177507313 0.5577381276346145 0.2000000000000001 -3.000000000000001 -1.670951976217542 -2.584632228796568 -1.900221560819029 0.03838002069365043 0 0 0 0 0 0 0 0 0 1 0.2190011156370762 0.5569897949076648 0.2000000000000002 -3.000000000000001 -1.669268549491822 -2.585572750581691 -1.898698289424372 0.03741878891295396 0.00444059522316177 -0.03647771497186477 1.044381662063367e-16 0 0.08205916708620267 -0.04584603127327004 0.07425234492357428 -0.04685554654420006 0.04102958354310143 1 0.2254664453979684 0.5038796949402516 0.2000000000000004 -3.000000000000001 -1.553237144798104 -2.652322745912005 -1.790589832939433 -0.03080102043940349 0.03836675086256752 -0.3151675241781657 6.306473283487931e-16 0 0.6861919014953126 -0.3961097941835428 0.6415403961579289 -0.4048320079736462 0.3020663672045544 1 0.2257078152300005 0.5018969382391338 0.2000000000000004 -3.000000000000001 -1.548920398995835 -2.654814720143309 -1.786553825350019 -0.03334786716395031 0.03906693989160635 -0.3209192972049955 8.273599904330922e-15 0 0.6986603673364724 -0.4033387548317453 0.6532484385897479 -0.4122201480744457 0.006234232920613983 1 0.2261842926752152 0.4979828664619074 0.2000000000000004 -3.000000000000001 -1.54010329322649 -2.659734015588294 -1.778586522357427 -0.03837548395619253 0.03778462748346183 -0.3103856132778728 -8.273599904330922e-15 0 0.7234602490561497 -0.3900997785655976 0.6318065600930196 -0.3986896536915608 0.01239994085974304 1 0.2323145124586117 0.4476255610251814 0.2000000000000002 -3.000000000000001 -1.423318315675414 -2.72302423542992 -1.676081526756862 -0.1030593346456048 0.01264088141818843 -0.1038397886302866 6.593303010493737e-15 0 0.2371809894571647 -0.1305082349766366 0.2113714581111055 -0.1333819854960341 0.2431396297993864 1 0.2323233194262363 0.4475532153060522 0.2000000000000003 -3.000000000000001 -1.423153555905385 -2.72311516119389 -1.675934263166073 -0.1031522625664612 0.01264089018291253 -0.1038398606294131 -6.593303010493737e-15 0 0.2357875795703517 -0.1305083254667077 0.2113716046695193 -0.1333820779787988 0.0006967049432816769 1 0.2326704442740731 0.4447017234175346 0.2000000000000004 -3.000000000000001 -1.416686634071086 -2.726698981792232 -1.67012989851724 -0.1068149977735836 0.009270373444120773 -0.07615241272418077 1.710525117365345e-14 0 0.1724183729847431 -0.09571010404544603 0.1550123197328646 -0.09781761060419616 0.03168460329311905 1 0.2329148602778681 0.4426939436328582 0.2000000000000005 -3.000000000000001 -1.41215205071296 -2.72922240561056 -1.666042955099394 -0.1093939865952235 0.005825743242125451 -0.04785615234173307 -1.367665892370477e-14 0 0.107655756511306 -0.06014671309766828 0.09741376435305071 -0.06147112491025736 0.03238130823639857 1 0.2330716539768629 0.4414059460618376 0.2000000000000005 -3.000000000000001 -1.409254610235438 -2.730841190585618 -1.663421166975387 -0.1110484167091799 8.326672684688674e-17 -7.216449660063518e-16 2.169367489357782e-30 0 1.665334536937735e-15 1.554312234475219e-15 -9.992007221626409e-16 -7.771561172376096e-16 0.0538278782558092 1 0.2330716539768629 0.4414059460618376 0.2000000000000005 -3.000000000000001 -1.409254610235438 -2.730841190585618 -1.663421166975387 -0.1110484167091799 0 0 0 0 0 0 0 0 1.110223024625157e-16 1 </data>\n</trajectory>\n'
p117
saa(lp118
VPGManipTrajectory
p119
ag117
ag4
aa(lp120
VGripperCloseTrajectory
p121
ag55
ag4
aa(lp122
VManipTrajectory
p123
ag79
ag4
aa(lp124
VManipTrajectory
p125
aS'<trajectory>\n<configuration>\n<group name="joint_values fetch 14 13 12 15 4 5 16 17" offset="0" dof="8" interpolation="linear"/>\n<group name="joint_velocities fetch 14 13 12 15 4 5 16 17" offset="8" dof="8" interpolation="next"/>\n<group name="deltatime" offset="16" dof="1" interpolation=""/>\n</configuration>\n<data count="9">\n0.15 0.72466344 -0.05064385 -1.73952133 2.25099986 -1.50486781 -0.02543544999999981 2.76926565 0 0 0 0 0 0 0 0 0 0.1497100259544405 0.7199080933690641 -0.04843634375862876 -1.732716348427648 2.24922877896876 -1.504694442235787 -0.01752488749822848 2.78145686850328 -0.05394548011357551 -0.8846635105474456 0.4106746306025894 1.265968467544341 -0.3294840280134355 0.03225256680699633 1.471645820242694 2.268 0.005375316800387997 0.1499319303761919 0.7158919629080027 -0.04249719400603923 -1.732030003461968 2.244938552628723 -1.507465490185667 -0.009506909810222662 2.790814411499139 0.05378326647869879 -0.9733948205974249 1.439479534834443 0.1663503317965503 -1.039827799189222 -0.6716225352220729 1.943327794961097 2.268 0.004125900791825153 0.1519511478005666 0.6793472317072371 0.01154603515727637 -1.725784624169139 2.20589968453756 -1.532680612853281 0.06345258472697271 2.875963260732148 0.05378328843822387 -0.9733948386845144 1.439479744546971 0.166350107649413 -1.039827943986301 -0.6716226787006343 1.943327891109215 2.268 0.03754358431790502 0.1538600917917037 0.644798280545905 0.06263785690762566 -1.719880317643486 2.168992806093672 -1.556518687954331 0.132427617054372 2.956461962876521 0.05378328912848963 -0.9733948392530518 1.439479751138974 0.1663501006036725 -1.039827948537779 -0.6716226832106682 1.943327894131484 2.268 0.03549325491374464 0.1725729766091765 0.3061238395121813 0.5634777848993475 -1.662001927809809 1.80720421240367 -1.790197179393598 0.8085720366786784 -2.537615367729111 0.05378328951925236 -0.97339483957491 1.439479754870746 0.1663500966150463 -1.039827951114402 -0.6716226857638262 1.943327895842414 2.268 0.3479312066022724 0.1856814905443174 0.06887989418041815 0.9143198507960302 -1.62145768882214 1.553768632429727 -1.953890687305141 1.282216192572265 -1.984839406633803 0.053783289609755 -0.9733948396494513 1.439479755735041 0.1663500956912597 -1.039827951711158 -0.6716226863551484 1.94332789623867 2.268 0.2437283779079842 0.1923771920911903 -0.05230200731712057 1.093526568483812 -1.600748085929913 1.424316201140121 -2.037503740398076 1.524149024134987 -1.702486818206925 0.053783289867875 -0.9733948398620531 1.439479758200077 0.1663500930565555 -1.039827953413154 -0.6716226880416476 1.943327897368831 2.268 0.1244940866079712 0.1926190590019653 -0.05667942499872414 1.1 -1.6 1.419640029092913 -2.040524070281019 1.532888291877693 -1.692287480038285 0.0537833087370715 -0.9733948554037493 1.439479938400042 0.1663499004532797 -1.039828077833179 -0.671622811328684 1.943327979986131 2.268 0.004497062684585364 </data>\n</trajectory>\n'
p126
a(dp127
g5
g6
(g7
g8
Ntp128
Rp129
(dp130
g12
(dp131
sg14
g15
((lp132
S'(empty gripper)'
p133
aS'(init)'
p134
aS'(revived)'
p135
aS'(crushed object2)'
p136
aS'(obstructs traj object3 object1)'
p137
aS'(delicate object11)'
p138
aS'(delicate object7)'
p139
aS'(delicate object3)'
p140
atp141
Rp142
sg26
g15
((lp143
tp144
Rp145
sbsVendpose
p146
g37
(g38
(I0
tp147
g40
tp148
Rp149
(I1
(I8
tp150
g47
I00
S"333333\xc3?\xfc\x04\xedaq0\xe7?\xe9\xaf\xfc\x9e\xfd\xed\xa9\xbf\xf6\xb5pQ\x14\xd5\xfb\xbf/\x01\xf06\x0c\x02\x02@\xde\x0c\xccD\xf0\x13\xf8\xbf8\xdc\xa2'\xc0\x0b\x9a\xbfM}\xc5\xbft'\x06@"
p151
tp152
bsVobj
p153
S'object2'
p154
sVgripper
p155
S'gripper'
p156
sVtrajectory
p157
S'traj'
p158
sVrobot
p159
S'fetch'
p160
sVtraj
p161
g126
sg56
g6
(g7
g8
Ntp162
Rp163
(dp164
g12
(dp165
sg14
g15
((lp166
S'(init)'
p167
aS'(revived)'
p168
aS'(ingripper object2 gripper)'
p169
aS'(crushed object2)'
p170
aS'(obstructs traj object3 object1)'
p171
aS'(delicate object11)'
p172
aS'(delicate object7)'
p173
aS'(delicate object3)'
p174
atp175
Rp176
sg26
g15
((lp177
tp178
Rp179
sbsg75
NsVpdpose
p180
g37
(g38
(I0
tp181
g40
tp182
Rp183
(I1
(I4
I4
tp184
g47
I00
S'\x01\x00\x00\x00\x00\x00\xf0?D\x81X\xbe\x1fV\xff\xbc\xaf\x1d|(\xb0\xc1\xd9\xbc\x19YQ\xd8]i\xdd?T\x9f\xb1X/o\xff<\xff\xff\xff\xff\xff\xff\xef?\x05\xf1\xb9\xca\xade\xfc<t\xbc\xffU\xa8i\xd5\xbf\x02/f\xb3\xd6\x8b\xd8<\xd4\x1d\xdbQhb\xfc\xbc\x00\x00\x00\x00\x00\x00\xf0?\xc86~d\x19\x08\xe4?\x00\x00\x00\x00\x00\x00\x00\x00\x00\x00\x00\x00\x00\x00\x00\x00\x00\x00\x00\x00\x00\x00\x00\x00\x00\x00\x00\x00\x00\x00\xf0?'
p185
tp186
bsVtraj2
p187
S'<trajectory>\n<configuration>\n<group name="joint_values fetch 14 13 12 15 4 5 16 17" offset="0" dof="8" interpolation="linear"/>\n<group name="joint_velocities fetch 14 13 12 15 4 5 16 17" offset="8" dof="8" interpolation="next"/>\n<group name="deltatime" offset="16" dof="1" interpolation=""/>\n</configuration>\n<data count="10">\n0.1926190590019654 -0.05667942499872416 1.1 -1.6 1.419640029092913 -2.040524070281019 1.532888291877693 -1.692287480038285 0 0 0 0 0 0 0 0 0 0.2012304750311023 0.0408301899382643 1.0671900132343 -1.375134622624868 1.444784985001525 -1.863947264940175 1.493758954084866 -1.832254716092073 0.06016281714727934 0.681241402541277 -0.2292237685080598 1.571 0.1756727789468853 1.233636607060626 -0.2733732973483922 -0.9778674263120137 0.1431351861076592 0.2019132546420669 0.0499076304087343 1.062036035196946 -1.357385449370236 1.447812395364553 -1.848081824168338 1.487056716525253 -1.846971333827479 0.06043361870646941 0.8034548299531361 -0.4561845997288961 1.571 0.2679596177290438 1.4042686436706 -0.593222853543647 -1.302584978502644 0.01129800971014074 0.2051364821468778 0.09687255657345711 1.029906923321132 -1.273840236084814 1.465262239121675 -1.767487024829723 1.444419242686206 -1.927501216887261 0.06061017993644187 0.8831373588420024 -0.604161899550881 1.571 0.3281301640679518 1.515519857833168 -0.8017631264199669 -1.514299159841773 0.05317963926506824 0.2066625088584857 0.1247458961343829 1.004004711334435 -1.234620631481267 1.47785333624387 -1.721518253977352 1.409155861831114 -1.98078493630666 0.05215253572115701 0.952581842808961 -0.8852178180222618 1.340344709891125 0.4303054706964831 1.571 -1.205139278169133 -1.820991113221366 0.02926083440634695 0.2074677294262225 0.1666115716738626 0.9420453004347641 -1.212436481948513 1.505308741134533 -1.660645342827886 1.32273967191056 -2.07929856234035 0.01853794567466758 0.963839784874718 -1.426441697236856 0.5107278370108994 0.6320837106404958 1.40142808711331 -1.989490455592334 -2.268 0.04343634304836404 0.2076028634178954 0.1810722673381706 0.9186347562061323 -1.208104617154054 1.515610845707495 -1.640470861854651 1.289986151836207 -2.1149337890771 0.008393005389947314 0.8981359549167888 -1.454 0.2690467743778105 0.6398509963201469 1.253012106365587 -2.034280695186211 -2.213259938308689 0.01610078695229144 0.2071242200516035 0.2049323437077792 0.8712863397747013 -1.216198598602143 1.536611308545284 -1.611719439162277 1.223399864844051 -2.180693429669343 -0.0146984314796745 0.7327077367339576 -1.454 -0.2485542265719504 0.6448932248951771 0.8829137645026174 -2.044766616995574 -2.019381525876113 0.03256424788956745 0.2059661691176181 0.22017073988494 0.8413099358300071 -1.229379818045631 1.554737023220347 -1.602291193925845 1.181947697281419 -2.222295254350268 -0.05617104910653373 0.7391356242219865 -1.454 -0.6393526423713599 0.8791844807724259 0.457315313706877 -2.010629818949139 -2.017888910146344 0.02061650890281578 0.15 0.72466344 -0.05064385 -1.73952133 2.25099986 -1.50486781 -0.02543545 2.76926565 -0.09123209205429124 0.822388331795362 -1.454 -0.8315966254814667 1.134998450323925 0.158812712585062 -1.968190643995721 -2.105514782883327 0.6134482708597023 </data>\n</trajectory>\n'
p188
sVpose_current
p189
g37
(g38
(I0
tp190
g40
tp191
Rp192
(I1
(I4
I4
tp193
g47
I00
S'\x01\x00\x00\x00\x00\x00\xf0?D\x81X\xbe\x1fV\xff\xbc\xaf\x1d|(\xb0\xc1\xd9\xbc\x19YQ\xd8]i\xdd?T\x9f\xb1X/o\xff<\xff\xff\xff\xff\xff\xff\xef?\x05\xf1\xb9\xca\xade\xfc<t\xbc\xffU\xa8i\xd5\xbf\x02/f\xb3\xd6\x8b\xd8<\xd4\x1d\xdbQhb\xfc\xbc\x00\x00\x00\x00\x00\x00\xf0?\xc86~d\x19\x08\xe4?\x00\x00\x00\x00\x00\x00\x00\x00\x00\x00\x00\x00\x00\x00\x00\x00\x00\x00\x00\x00\x00\x00\x00\x00\x00\x00\x00\x00\x00\x00\xf0?'
p194
tp195
bsVpose_end
p196
g37
(g38
(I0
tp197
g40
tp198
Rp199
(I1
(I8
tp200
g47
I00
S"333333\xc3?\xfc\x04\xedaq0\xe7?\xe9\xaf\xfc\x9e\xfd\xed\xa9\xbf\xf6\xb5pQ\x14\xd5\xfb\xbf/\x01\xf06\x0c\x02\x02@\xde\x0c\xccD\xf0\x13\xf8\xbf8\xdc\xa2'\xc0\x0b\x9a\xbfM}\xc5\xbft'\x06@"
p201
tp202
bsVgripper_open_trajectory
p203
S'open'
p204
sVcpose
p205
g37
(g38
(I0
tp206
g40
tp207
Rp208
(I1
(I8
tp209
g47
I00
S"233333\xc3?\xfc\x04\xedaq0\xe7?\xe9\xaf\xfc\x9e\xfd\xed\xa9\xbf\xf5\xb5pQ\x14\xd5\xfb\xbf/\x01\xf06\x0c\x02\x02@\xdd\x0c\xccD\xf0\x13\xf8\xbf\x02\xdc\xa2'\xc0\x0b\x9a\xbfM}\xc5\xbft'\x06@"
p210
tp211
bsg78
g188
saa(lp212
VGripperOpenTrajectory
p213
ag204
ag127
aa(lp214
VManipTrajectory
p215
ag188
ag127
aa(lp216
g2
aS'<trajectory>\n<configuration>\n<group name="joint_values fetch 14 13 12 15 4 5 16 17" offset="0" dof="8" interpolation="linear"/>\n<group name="joint_velocities fetch 14 13 12 15 4 5 16 17" offset="8" dof="8" interpolation="next"/>\n<group name="deltatime" offset="16" dof="1" interpolation=""/>\n</configuration>\n<data count="16">\n0.15 0.72466344 -0.05064385 -1.73952133 2.25099986 -1.50486781 -0.02543544999999981 2.76926565 0 0 0 0 0 0 0 0 0 0.1469593781238045 0.6843176103437972 -0.04974500599690091 -1.722446446266505 2.121392606309805 -1.463520032561382 -0.042161356867789 2.774193904154953 -0.03568307900997671 -0.473476639307319 0.01054834270296046 0.200381517385791 -1.521 0.485234951698503 -0.1962861153336205 0.05783530131423598 0.08521186961879991 0.1415042826990034 0.6124177810689188 -0.04756632270840238 -1.69093368024812 1.889266552481388 -1.390084071349953 -0.07234668981733733 2.782749954572312 -0.03574437252638431 -0.4711217828565104 0.01427576623628704 0.2064865891762128 -1.521 0.4811872478784641 -0.1977886181195332 0.0560633003929128 0.1526141050811421 0.09817036653254088 0.04590086329519913 -0.02477296143370149 -1.431997151819029 0.04908137476868693 -0.8140561562032325 -0.3138727053942543 2.84791770533576 -0.03581752928317514 -0.4682530010402877 0.01883979010303315 0.2140232757608568 -1.521 0.476114289773368 -0.1996326642241029 0.05386422524846515 1.2098521878453 0.08712237736282835 -0.04472363828251681 0.04469933640837605 -1.266111436748039 -0.3763731239691603 -0.7522389873310079 -0.3956543230508977 2.832050083625033 -0.03949656561861128 -0.3239826287149895 0.248363492056783 0.5930414964972403 -1.521 0.2209964029845371 -0.2923693152258803 -0.05672675384468505 0.2797202490058168 0.08436730803439657 -0.05207519370217268 0.08006529891528974 -1.19643816843233 -0.4700885079588925 -0.7609277243721762 -0.4217749701133368 2.818886670616906 -0.04471475514632538 -0.1193156909491155 0.5739893140587174 1.130796637612916 -1.521 -0.1410181389329294 -0.4239379116914538 -0.2136420973055455 0.06161432214972534 0.08296579350953953 -0.0468823401538177 0.108670528246127 -1.144273402497006 -0.5105544932803704 -0.7796155166542157 -0.438445465854557 2.806748985394603 -0.04220817019058931 0.1563885656954785 0.8614783268549946 1.571 -1.218678197825349 -0.5628036692714014 -0.5020505381338736 -0.365539903080948 0.03320481599956966 0.07526152138130299 0.0004594215853805581 0.2904631247558997 -0.815503582374967 -0.7200905881047293 -0.9195623233643143 -0.5385746922996313 2.726224931459378 -0.03681424137095923 0.2262187802538349 0.8686812220502466 1.571 -1.001251285312245 -0.6687244992863217 -0.4784594117757549 -0.3847776802788022 0.2092742330503116 0.05047616880560494 0.1528004533167479 0.8753571124971286 0.2422663356057838 -1.394161797703114 -1.369861563151737 -0.8607172372367886 2.467142983667825 -0.03681120840603278 0.2262569172952537 0.8686846157390833 1.571 -1.001130635573939 -0.6687844810868536 -0.4784461436210778 -0.3847885377167032 0.6733099414263215 0.03813676223588746 0.228645257221055 1.166549279885496 0.7688817798308718 -1.729747513892017 -1.594046838488872 -1.02109693312893 2.338157560905692 -0.0368109365830533 0.2262603352034201 0.8686849198664865 1.571 -1.001119822660246 -0.668789856843056 -0.4784449544910448 -0.3847895107928105 0.3352103400541617 0.03144136407417972 0.2697988789690405 1.324551014936595 1.054624883302023 -1.91183730085414 -1.715690443889009 -1.10811943017555 2.268169685871461 -0.03681093396224282 0.2262603680743348 0.8686849227503343 1.571 -1.001119718524987 -0.6687899087052184 -0.478444943025695 -0.3847895201777935 0.1818861256977408 0.03083996006773959 0.2734955405065006 1.338743413481028 1.080291552888157 -1.928193173457647 -1.726617099228043 -1.115936140287222 2.261883056017215 -0.03681060727208076 0.2262644655108305 0.8686852822287655 1.571 -1.001106737821167 -0.6687963734451383 -0.4784435138430132 -0.384790690037806 0.01633779095234519 0.02928150668494705 0.2830777278186004 1.375524722390719 1.146809516730583 -1.970575216424477 -1.754937691588944 -1.136193335868605 2.245590032676642 -0.03680705365797004 0.2263090359014786 0.8686891925015688 1.571 -1.000965538551616 -0.6688666944822977 -0.4784279677252296 -0.3848034153401748 0.04234116094361923 0.02591061669163928 0.3038065684428544 1.455085397999602 1.290692460608835 -2.062244452418391 -1.816200097478901 -1.180010381458773 2.210346554470774 -0.03680539219414009 0.226329874430831 0.8686910207183105 1.571 -1.000899521963468 -0.6688995725202836 -0.4784206992623127 -0.3848093649534213 0.09158685160932646 0.02483349503269609 0.3104925077711078 1.48059067821574 1.336811813628811 -2.091494689819199 -1.835903513686494 -1.194040515286628 2.199037766491585 -0.03669084701745096 0.2277484395788585 0.8688065333917057 1.571 -0.9963739720452243 -0.6711730506869908 -0.4779195457059841 -0.3852201896156298 0.02935668556332028 0.02453255338953707 0.3069997728807203 1.5 1.4 -2.123220419124396 -1.895857211646012 -1.20713623721275 2.178539487016767 -0.007482084050103026 -0.08683722113126947 0.4825592610610977 1.571 -0.7887727691008635 -1.490583365395464 -0.3255890116086361 -0.5096331910172026 0.04022163359082698 </data>\n</trajectory>\n'
p217
a(dp218
g5
g6
(g7
g8
Ntp219
Rp220
(dp221
g12
(dp222
sg14
g15
((lp223
S'(init)'
p224
aS'(ingripper object3 gripper)'
p225
aS'(crushed object2)'
p226
aS'(delicate object11)'
p227
aS'(delicate object7)'
p228
aS'(crushed object3)'
p229
aS'(delicate object3)'
p230
atp231
Rp232
sg26
g15
((lp233
tp234
Rp235
sbsg30
S'object3'
p236
sg32
S'gripper'
p237
sg34
S'traj'
p238
sg36
g37
(g38
(I0
tp239
g40
tp240
Rp241
(I1
(I4
I4
tp242
g47
I00
S'\x00\x00\x00\x00\x00\x00\xf0?\x00\x00\x00\x00\x00\x00\x00\x00\x00\x00\x00\x00\x00\x00\x00\x00V\xc8X\x0b\xec\xed\xda?\x00\x00\x00\x00\x00\x00\x00\x00\x00\x00\x00\x00\x00\x00\xf0?\x00\x00\x00\x00\x00\x00\x00\x00F\xf6"\xbf\xc1\x15\xca\xbf\x00\x00\x00\x00\x00\x00\x00\x00\x00\x00\x00\x00\x00\x00\x00\x00\x00\x00\x00\x00\x00\x00\xf0?\xfe\xd4x\xe9&1\xe4?\x00\x00\x00\x00\x00\x00\x00\x00\x00\x00\x00\x00\x00\x00\x00\x00\x00\x00\x00\x00\x00\x00\x00\x00\x00\x00\x00\x00\x00\x00\xf0?'
p243
tp244
bsg52
S'fetch'
p245
sg54
g55
sg56
g129
sg75
g76
sg77
g217
sg78
S'<trajectory>\n<configuration>\n<group name="joint_values fetch 14 13 12 15 4 5 16 17" offset="0" dof="8" interpolation="linear"/>\n<group name="joint_velocities fetch 14 13 12 15 4 5 16 17" offset="8" dof="8" interpolation="next"/>\n<group name="deltatime" offset="16" dof="1" interpolation=""/>\n</configuration>\n<data count="20">\n0.170438942635202 0.2578081030675956 1.5 1.099999999999999 -1.618727709620406 -1.704638436322411 -0.8490591820418186 1.677360796252609 0 0 0 0 0 0 0 0 0 0.1748141379270534 0.1933608204351345 1.413981928780573 0.8712764635726075 -1.584857386239432 -1.744506109096737 -0.7802049471358062 1.5706280629859 0.03005126586821785 -0.4426596518969844 -0.5908197818050919 -1.571 0.2326401509116308 -0.2738332700987607 0.4729290423142968 -0.7330995601986477 0.1455910480123434 0.1758939729689477 0.1776356742335419 1.392450368721729 0.8142313673092327 -1.575947325309607 -1.754199490433233 -0.7631196732772525 1.544555996369821 0.02973824153058822 -0.4330644753169277 -0.5929708786232777 -1.571 0.2453796493940193 -0.2669519919701183 0.4705218676091693 -0.7180146820114587 0.0363113279843251 0.1840417265626743 0.05935031466475212 1.229375832310587 0.3826012607660529 -1.507602185458966 -1.827043239494407 -0.634019670757856 1.348380598161975 0.02965530138353308 -0.4305220999777012 -0.5935408416101188 -1.571 0.2487551565048589 -0.2651287017293764 0.4698840532285305 -0.7140177339638252 0.2747486356099172 0.192705533018577 -0.06618191177536605 1.055564509169391 -0.07717113993285013 -1.434183107460911 -1.904302678409732 -0.4966190865684867 1.140146137097404 0.02960342970028932 -0.4289320703844852 -0.5938973027518462 -1.571 0.2508662359019634 -0.2639883958921251 0.469485157076359 -0.7115179985470171 0.2926622537866983 0.1936838556028294 -0.08035523233780478 1.035934525396298 -0.1290950377796419 -1.425886922780586 -1.913025361146668 -0.4811027849142956 1.11663494627836 0.02959994999596201 -0.4288254065457647 -0.593921215208506 -1.571 0.2510078532865072 -0.2639119008391774 0.469458397955005 -0.7113503089791737 0.03305149449191076 0.1945848786594682 -0.0902056898358579 1.012515854303308 -0.187437705197868 -1.408497038477084 -1.918469900767485 -0.4651921264855463 1.099768724738744 0.02426195586555249 -0.2652444499753383 -0.6305973640758439 -1.571 0.4682594994322732 -0.1466057710901429 0.4284282069653309 -0.4541587694096171 0.03713728034260091 0.1973075769903783 -0.119639442410483 0.9411956619058097 -0.3648283505898494 -1.354937021001014 -1.934653612722454 -0.4169453725562646 1.049299202444474 0.02411265300043309 -0.2606700324730104 -0.6316230599921743 -1.571 0.4743361030621145 -0.1433255481148685 0.4272809891153803 -0.4469661821743548 0.112915751363451 0.2001620655724218 -0.1500937607238643 0.8657493123254258 -0.5521334649906608 -1.297553917919715 -1.951294022528678 -0.3661586981428355 0.9969908479568617 0.02394169308582876 -0.2554320752178817 -0.6327975376964378 -1.571 0.4812941452725749 -0.139569514101129 0.4259673621765849 -0.4387302779367303 0.119226680076901 0.2009595702564184 -0.1581960511478133 0.8439932350635613 -0.6057987366849478 -1.280285012315264 -1.955614785700575 -0.3517639830497741 0.9829838214331514 0.02334619427058664 -0.2371868781087128 -0.6368885556583855 -1.571 0.5055308553945405 -0.1264862494635118 0.4213916504517928 -0.4100424347817354 0.03415994379012535 0.198495604981192 -0.007787286822416001 0.6686842612652061 -0.9240266116339966 -0.882520214614422 -1.842616296497061 -0.3123374073618604 1.222033759794756 -0.009421877464475778 0.5751432300225525 -0.6703583391204003 -1.216861322558608 1.521 0.4320912837737054 0.1507620130487729 0.9140953607499986 0.2615153173575553 0.1952779734751766 0.1886105834600202 0.4397738031949247 -1.339552137350185 -0.3631258313219892 -1.695068658493095 -0.2608553405726731 1.534179311583894 -0.009422546099991219 0.5751335984921451 -0.6703438041009145 -1.216829339986301 1.521 0.432080062132052 0.1507606283494724 0.9140903320164879 0.3414821717898967 0.1916586919885347 0.4095133184703709 0.1823025600461288 -1.806920879200068 0.2210797720641821 -1.529112148098846 -0.2029495271491233 1.885273997628098 -0.009422927663265452 0.5751281021668763 -0.6703355095525407 -1.216811088824451 1.521 0.4320736583945403 0.1507598381575263 0.9140874623214456 0.3840930988732224 0.1913520341229983 0.4281806616062283 0.1605482501382219 -1.846404394181847 0.2704729557228921 -1.515091937321511 -0.198055088533459 1.914953276016488 -0.009443137269786239 0.5748369877476432 -0.6698961864567228 -1.21584441088555 1.521 0.4317344826296871 0.1507179854180694 0.9139354681135434 0.03247415099191982 0.1898179473495827 0.4391796892581709 0.1527133873277427 -1.842440140545136 0.3439468081089559 -1.514712469381601 -0.191651360042235 1.946647064354176 -0.03175750156810311 0.2276935333498037 -0.1621913911921014 0.08206497394140765 1.521 0.007855457660921767 0.1325651332935845 0.6561007827427681 0.04830628033271786 0.1652185289511269 0.6155509502384267 0.02707979483382456 -1.778860953838552 1.522118256799561 -1.508629762871609 -0.08896425453104982 2.454859887226939 -0.03175744534094282 0.227692402705148 -0.162190905572887 0.08207968635480768 1.521 0.007852674253801555 0.1325673675559661 0.6560944117671146 0.7746031878307729 0.1605463088852829 0.6490495165357397 0.003217939404411546 -1.766785143030349 1.745890890428402 -1.507474476367907 -0.06946065999167708 2.551385805821309 -0.03175744328028891 0.2276923612684623 -0.1621908877755619 0.08208022554599963 1.521 0.007852572245479075 0.1325674494388336 0.6560941782789814 0.1471220470932547 0.1533417002560862 0.7007046110296407 -0.03357726765767102 -1.748163728758022 2.090950532452426 -1.50569308737416 -0.03938586220044032 2.700229568737489 -0.03175743665857378 0.2276922281156056 -0.1621908305855458 0.08208195818576076 1.521 0.007852244451411619 0.1325677125616629 0.6560934279870012 0.2268636699697726 0.1509665079860813 0.7177339821596992 -0.04570776222035255 -1.742022336468133 2.204709113614841 -1.505106241715175 -0.02947050976790156 2.749299081308522 -0.03175731804811793 0.2276898430355659 -0.1621898061781951 0.08211299382843668 1.521 0.007846372890679052 0.1325724257087882 0.6560799884976036 0.07479196657620996 0.15 0.72466344 -0.05064385 -1.73952133 2.25099986 -1.50486781 -0.02543545 2.76926565 -0.03175707374856737 0.2276849305345568 -0.162187696227142 0.08217691731256227 1.521 0.00783427935606397 0.1325821332823872 0.656052307453704 0.03043441576933499 </data>\n</trajectory>\n'
p246
sg80
g246
sg81
g37
(g38
(I0
tp247
g40
tp248
Rp249
(I1
(I4
I4
tp250
g47
I00
S'\x00\x00\x00\x00\x00\x00\xf0?\x00\x00\x00\x00\x00\x00\x00\x00\x00\x00\x00\x00\x00\x00\x00\x00^\x97\xdf8)\xaa\xe0?\x00\x00\x00\x00\x00\x00\x00\x00\x00\x00\x00\x00\x00\x00\xf0?\x00\x00\x00\x00\x00\x00\x00\x00F\xf6"\xbf\xc1\x15\xca\xbf\x00\x00\x00\x00\x00\x00\x00\x00\x00\x00\x00\x00\x00\x00\x00\x00\x00\x00\x00\x00\x00\x00\xf0?\xfe\xd4x\xe9&1\xe4?\x00\x00\x00\x00\x00\x00\x00\x00\x00\x00\x00\x00\x00\x00\x00\x00\x00\x00\x00\x00\x00\x00\x00\x00\x00\x00\x00\x00\x00\x00\xf0?'
p251
tp252
bsg88
g37
(g38
(I0
tp253
g40
tp254
Rp255
(I1
(I8
tp256
g47
I00
S"333333\xc3?\xfc\x04\xedaq0\xe7?\xe9\xaf\xfc\x9e\xfd\xed\xa9\xbf\xf6\xb5pQ\x14\xd5\xfb\xbf/\x01\xf06\x0c\x02\x02@\xde\x0c\xccD\xf0\x13\xf8\xbf8\xdc\xa2'\xc0\x0b\x9a\xbfM}\xc5\xbft'\x06@"
p257
tp258
bsg95
g37
(g38
(I0
tp259
g40
tp260
Rp261
(I1
(I4
I4
tp262
g47
I00
S'\x00\x00\x00\x00\x00\x00\xf0?\x00\x00\x00\x00\x00\x00\x00\x00\x00\x00\x00\x00\x00\x00\x00\x00^\x97\xdf8)\xaa\xe0?\x00\x00\x00\x00\x00\x00\x00\x00\x00\x00\x00\x00\x00\x00\xf0?\x00\x00\x00\x00\x00\x00\x00\x00F\xf6"\xbf\xc1\x15\xca\xbf\x00\x00\x00\x00\x00\x00\x00\x00\x00\x00\x00\x00\x00\x00\x00\x00\x00\x00\x00\x00\x00\x00\xf0?\xfe\xd4x\xe9&1\xe4?\x00\x00\x00\x00\x00\x00\x00\x00\x00\x00\x00\x00\x00\x00\x00\x00\x00\x00\x00\x00\x00\x00\x00\x00\x00\x00\x00\x00\x00\x00\xf0?'
p263
tp264
bsg102
g37
(g38
(I0
tp265
g40
tp266
Rp267
(I1
(I8
tp268
g47
I00
S"333333\xc3?\xfc\x04\xedaq0\xe7?\xe9\xaf\xfc\x9e\xfd\xed\xa9\xbf\xf6\xb5pQ\x14\xd5\xfb\xbf/\x01\xf06\x0c\x02\x02@\xde\x0c\xccD\xf0\x13\xf8\xbf8\xdc\xa2'\xc0\x0b\x9a\xbfM}\xc5\xbft'\x06@"
p269
tp270
bsg109
g37
(g38
(I0
tp271
g40
tp272
Rp273
(I1
(I8
tp274
g47
I00
S"233333\xc3?\xfc\x04\xedaq0\xe7?\xe9\xaf\xfc\x9e\xfd\xed\xa9\xbf\xf5\xb5pQ\x14\xd5\xfb\xbf/\x01\xf06\x0c\x02\x02@\xdd\x0c\xccD\xf0\x13\xf8\xbf\x02\xdc\xa2'\xc0\x0b\x9a\xbfM}\xc5\xbft'\x06@"
p275
tp276
bsg116
S'<trajectory>\n<configuration>\n<group name="joint_values fetch 14 13 12 15 4 5 16 17" offset="0" dof="8" interpolation="quadratic"/>\n<group name="joint_velocities fetch 14 13 12 15 4 5 16 17" offset="8" dof="8" interpolation="linear"/>\n<group name="deltatime" offset="16" dof="1" interpolation=""/>\n<group name="iswaypoint" offset="17" dof="1" interpolation="next"/>\n</configuration>\n<data count="15">\n0.02453255338953708 0.3069997728807203 1.5 1.4 -2.123220419124396 -1.895857211646012 -1.207136237212751 2.178539487016767 0 0 0 0 0 0 0 0 0 1 0.02453255338953708 0.3069997728807203 1.5 1.4 -2.123220419124396 -1.895857211646012 -1.207136237212751 2.178539487016767 0 0 0 0 0 0 0 0 0 1 0.02703255338953708 0.3068917672708276 1.5 1.399341317684662 -2.12211275103784 -1.895437370227125 -1.206350040466853 2.177439095215333 0.09999999999999794 -0.004320224395708468 0 -0.02634729261348611 0.0443067234622409 0.01679365675547792 0.03144786983588265 -0.04401567205736162 0.05000000000000107 1 0.09748574801236956 0.282403937974158 1.5 1.249999999999999 -1.870974064372402 -1.800247823984212 -1.028097709627285 1.927950141634688 0.100000000000002 -0.06519494642873454 -6.303322542398127e-16 -0.3975974794700338 0.6686167656993111 0.2534270103200346 0.4745684486400459 -0.6642246140397299 0.7045319462283249 1 0.1042589062490915 0.2781863742896963 1.5 1.224278793337465 -1.827720193569423 -1.783853231858028 -0.9973971298367414 1.884980406034679 0.1000000000000016 -0.05934263373867919 -5.091357599564374e-16 -0.3619066030739614 0.6085974759072231 0.2306777914044247 0.4319681689187954 -0.6045995916917012 0.06773158236721821 1 0.1270735800451352 0.2668962631309117 1.5 1.155424994299895 -1.711932728115733 -1.739966101430223 -0.9152139111810607 1.76995354984872 0.1000000000000013 -0.03962973167592186 5.091357599564374e-16 -0.2416856257968375 0.4064287873547116 0.1540494312606334 0.2884735905415864 -0.4037589517112498 0.2281467379604338 1 0.1415089194596389 0.2620758209975256 1.5 1.12602707702021 -1.662495944975058 -1.721227988965937 -0.8801248456888322 1.7208415175373 0.09999999999999921 -0.02715695057614845 -1.366743939576414e-15 -0.1656192034910496 0.2785122690503123 0.1055650042054293 0.1976814555527709 -0.2766827185701609 0.1443533941450359 1 0.1430514614091097 0.2616671933387031 1.5 1.123535023017724 -1.658305201388578 -1.719639563917952 -0.8771503544937094 1.71667830299637 0.09999999999999014 -0.0258241251038472 1.366743939576414e-15 -0.1574908426688046 0.2648432731335073 0.1003840201993547 0.1879795238640852 -0.2631035144536382 0.01542541949470926 1 0.1445940033585806 0.2612791250719042 1.5 1.121168352390727 -1.654325307798186 -1.718131057721656 -0.8743255196647935 1.712724553375341 0.1000000000000157 -0.02449129963154757 2.742269741094354e-14 -0.1493624818465248 0.2511742772166535 0.095203036193291 0.1782775921754419 -0.2495243103371073 0.01542541949470799 1 0.1476802074868689 0.2605644222224766 1.5 1.116809670206471 -1.646995563181512 -1.715352851490662 -0.869123039394912 1.705442957940133 0.09999999999999833 -0.02182468075851213 -2.168705957775981e-15 -0.1330998571999406 0.2238263586446482 0.08483730563172855 0.1588666830327579 -0.2223560405745491 0.03086204128288372 1 0.157076794581318 0.2588951049679089 1.5 1.106629182772871 -1.629875624216685 -1.708863850359827 -0.8569717095268182 1.688435480062423 0.09999999999999686 -0.01370560779814681 2.168705957775981e-15 -0.08358493125083963 0.1405599614681087 0.05327669396429861 0.099766153463205 -0.1396366213730136 0.09396587094449353 1 0.1664733816757671 0.2579887034753239 1.5 1.101101408480831 -1.62057988478296 -1.705340469591864 -0.8503738123930081 1.67920080445401 0.1000000000000029 -0.005586534837775936 2.557363256358161e-15 -0.03407000530170171 0.05729356429160112 0.02171608229687125 0.04066562389365427 -0.05691720217146959 0.09396587094449139 1 0.167938942635202 0.2579161086774883 1.5 1.100658682315336 -1.619835377706963 -1.705058277741298 -0.8498453787877158 1.678461188054043 0.0999999999999981 -0.004320224395708519 6.303322542398127e-16 -0.02634729261348584 0.04430672346224196 0.0167936567554775 0.03144786983588244 -0.04401567205736223 0.01465560959434919 1 0.170438942635202 0.2578081030675956 1.5 1.099999999999999 -1.618727709620407 -1.704638436322411 -0.8490591820418187 1.677360796252609 4.440892098500626e-16 2.51534904016637e-17 -6.303322542398127e-16 -4.267419750902945e-16 -7.979727989493313e-16 5.169475958410885e-16 4.024558464266192e-16 3.469446951953614e-16 0.05000000000000077 1 0.170438942635202 0.2578081030675956 1.5 1.099999999999999 -1.618727709620407 -1.704638436322411 -0.849059182041819 1.677360796252609 0 0 0 0 0 0 0 0 1.110223024625157e-16 1 </data>\n</trajectory>\n'
p277
saa(lp278
g119
ag277
ag218
aa(lp279
g121
ag55
ag218
aa(lp280
g123
ag246
ag218
aa(lp281
g125
aS'<trajectory>\n<configuration>\n<group name="joint_values fetch 14 13 12 15 4 5 16 17" offset="0" dof="8" interpolation="linear"/>\n<group name="joint_velocities fetch 14 13 12 15 4 5 16 17" offset="8" dof="8" interpolation="next"/>\n<group name="deltatime" offset="16" dof="1" interpolation=""/>\n</configuration>\n<data count="8">\n0.15 0.72466344 -0.05064385 -1.73952133 2.25099986 -1.50486781 -0.02543544999999981 2.76926565 0 0 0 0 0 0 0 0 0 0.1500481593697599 0.7273202244609671 -0.04814876794049469 -1.796646180655941 2.058655969512995 -1.3925913885663 0.06448889698508573 2.782067786419773 0.0003808304033956978 0.02100908510740514 0.01973038916338215 -0.451726840024359 -1.521 0.8878495520095265 0.7110957952342949 0.1012356017400561 0.1264588366121007 0.1500650020615457 0.7282447014168896 -0.04728153895509946 -1.816514363040717 1.991752032667268 -1.353540307375656 0.09576618115006483 2.786517263664495 0.0003829032402856285 0.02101714063853147 0.01971566022830251 -0.4516850103593539 -1.521 0.8877907234058887 0.7110605363123998 0.1011548080470535 0.04398680923453419 0.1500769039925208 0.7288970860508961 -0.0466697426354901 -1.830533107708695 1.944544240979538 -1.325986146728292 0.1178353076835784 2.789656152362834 0.0003834713797436361 0.02101934856194128 0.01971162320578722 -0.4516735453553635 -1.521 0.8877745991989423 0.7110508722694294 0.1011326634754414 0.03103733838772536 0.1501126586846427 0.7308560867858813 -0.04483279768653274 -1.872627330296902 1.802791828068092 -1.243248812693733 0.1841027326746321 2.799080760380385 0.0003836469912610763 0.02102003102955255 0.01971037536489471 -0.4516700015304899 -1.521 0.8877696152176218 0.7110478851203693 0.1011258186035275 0.09319685267024694 0.1509312888175518 0.7757060736878313 -0.002777782858327839 -2.836340200384383 -1.442517688641042 0.6509555394593698 1.701242149624199 3.0148475838974 0.0003836726283714777 0.02102013066138613 0.01971019319555173 -0.4516694841758704 -1.521 0.8877688876179666 0.7110474490335371 0.1011248193368524 2.133668321307781 0.1509542824798375 0.7769652263818583 -0.00159722349007188 -2.863395002421659 -1.533625706079994 0.704132633959156 1.743833748688459 3.020904514600702 0.0003838669890923248 0.02102088599280892 0.01970881212864174 -0.451665561993722 -1.521 0.8877633715207492 0.7110441429608279 0.1011172436706367 0.059900077211671 0.1509854036938799 0.7786689048020043 0 -2.900000000000001 -1.656895079277502 0.7760810699122133 1.801460105136453 3.029099138534284 0.000383999409834545 0.02102140061092285 0.01970787118797843 -0.4516628897548632 -1.521 0.8877596133247172 0.7110418904861466 0.1011120822607522 0.08104495279257599 </data>\n</trajectory>\n'
p282
a(dp283
g5
g6
(g7
g8
Ntp284
Rp285
(dp286
g12
(dp287
sg14
g15
((lp288
S'(empty gripper)'
p289
aS'(init)'
p290
aS'(revived)'
p291
aS'(crushed object2)'
p292
aS'(delicate object11)'
p293
aS'(delicate object7)'
p294
aS'(crushed object3)'
p295
aS'(delicate object3)'
p296
atp297
Rp298
sg26
g15
((lp299
tp300
Rp301
sbsg146
g37
(g38
(I0
tp302
g40
tp303
Rp304
(I1
(I8
tp305
g47
I00
S"333333\xc3?\xfc\x04\xedaq0\xe7?\xe9\xaf\xfc\x9e\xfd\xed\xa9\xbf\xf6\xb5pQ\x14\xd5\xfb\xbf/\x01\xf06\x0c\x02\x02@\xde\x0c\xccD\xf0\x13\xf8\xbf8\xdc\xa2'\xc0\x0b\x9a\xbfM}\xc5\xbft'\x06@"
p306
tp307
bsg153
S'object3'
p308
sg155
S'gripper'
p309
sg157
S'traj'
p310
sg159
S'fetch'
p311
sg161
g282
sg56
g6
(g7
g8
Ntp312
Rp313
(dp314
g12
(dp315
sg14
g15
((lp316
S'(init)'
p317
aS'(ingripper object3 gripper)'
p318
aS'(crushed object2)'
p319
aS'(revived)'
p320
aS'(delicate object11)'
p321
aS'(delicate object7)'
p322
aS'(crushed object3)'
p323
aS'(delicate object3)'
p324
atp325
Rp326
sg26
g15
((lp327
tp328
Rp329
sbsg75
Nsg180
g37
(g38
(I0
tp330
g40
tp331
Rp332
(I1
(I4
I4
tp333
g47
I00
S'\x01\x00\x00\x00\x00\x00\xf0?\x1e[.B\xa2\x11\xda<\xd1\x86\x12\x96\xc7V\xf6<-\x06u\xb5\xc5\x9d\xdb?\xd9~#\x1f}=\xd8\xbc\x01\x00\x00\x00\x00\x00\xf0?\xbf-\xb8\xf3\xae\xc3\xff<T\x81:joT\xd7?\x15x<\xd1\xcfr\xf6\xbc\xea~\xf2X\xa8\xb0\xff\xbc\x00\x00\x00\x00\x00\x00\xf0?\xc06~d\x19\x08\xe4?\x00\x00\x00\x00\x00\x00\x00\x00\x00\x00\x00\x00\x00\x00\x00\x00\x00\x00\x00\x00\x00\x00\x00\x00\x00\x00\x00\x00\x00\x00\xf0?'
p334
tp335
bsg187
S'<trajectory>\n<configuration>\n<group name="joint_values fetch 14 13 12 15 4 5 16 17" offset="0" dof="8" interpolation="linear"/>\n<group name="joint_velocities fetch 14 13 12 15 4 5 16 17" offset="8" dof="8" interpolation="next"/>\n<group name="deltatime" offset="16" dof="1" interpolation=""/>\n</configuration>\n<data count="8">\n0.1509854036938799 0.7786689048020045 0 -2.900000000000001 -1.656895079277502 0.7760810699122133 1.801460105136453 3.029099138534284 0 0 0 0 0 0 0 0 0 0.1446079141690795 0.8268732525143454 -0.05559964888560489 -2.752784626540516 -1.689963173470957 0.9199503098929026 1.803389528058583 2.893383058634464 -0.06805699573366035 0.5144097961815708 -0.5933283076806094 1.571 -0.3528841774953305 1.535291937916151 0.02058972062113607 -1.448285980684575 0.09370806712888939 0.1450909743620429 0.8177160181924644 -0.05515501011603223 -2.662016353574717 -1.336931693750268 0.7027361451816259 1.639562640699227 2.882263736445996 0.002081215403449451 -0.03945300689502426 0.001915680632942665 0.3910658145562804 1.521 -0.935844998262601 -0.7058313776174496 -0.04790646166183718 0.2321048518873697 0.1492801708523355 0.7383063563803519 -0.05130333192047169 -1.874810938292279 1.724805785291234 -1.181104806597434 0.2187453789382038 2.785834900486006 0.002081095425506513 -0.03944887386427225 0.001913424183343632 0.391065349279855 1.521 -0.9358483891156333 -0.7058289843370412 -0.04790360391742678 2.012976646312625 0.1494628284857288 0.734844043253532 -0.05113552056988274 -1.840485818361819 1.858309176239541 -1.26324763714155 0.156792490903962 2.781630409558445 0.002081012762431212 -0.03944602626559587 0.001911869522060482 0.3910650287110969 1.521 -0.9358507253645461 -0.7058273354012999 -0.0479016349726752 0.08777343257613887 0.1497754750173214 0.7289183867163314 -0.05084900502095015 -1.781725714986858 2.086850078259349 -1.403866899096235 0.05073779273331802 2.774433811190928 0.002080745154804427 -0.03943680764986678 0.001906836570937728 0.3910639909243439 1.521 -0.9358582885725115 -0.7058219972526777 -0.04789526084938796 0.1502570033003341 0.1498917216850899 0.7267153143494407 -0.05074267696379037 -1.759875741953086 2.171833294793744 -1.456156665477693 0.01130144832714908 2.771758017095073 0.002080542357493331 -0.03942982163642272 0.00190302252062406 0.391063204473057 1.521 -0.9358640200916569 -0.7058179519188506 -0.04789043043750503 0.05587325215936563 0.15 0.72466344 -0.05064385 -1.73952133 2.25099986 -1.50486781 -0.02543545 2.76926565 0.002080314038498031 -0.03942195644547972 0.001898728478790769 0.3910623190482562 1.521 -0.9358704729123948 -0.7058133974868797 -0.04788499212677816 0.0520490238042442 </data>\n</trajectory>\n'
p336
sg189
g37
(g38
(I0
tp337
g40
tp338
Rp339
(I1
(I4
I4
tp340
g47
I00
S'\x01\x00\x00\x00\x00\x00\xf0?\x1e[.B\xa2\x11\xda<\xd1\x86\x12\x96\xc7V\xf6<-\x06u\xb5\xc5\x9d\xdb?\xd9~#\x1f}=\xd8\xbc\x01\x00\x00\x00\x00\x00\xf0?\xbf-\xb8\xf3\xae\xc3\xff<T\x81:joT\xd7?\x15x<\xd1\xcfr\xf6\xbc\xea~\xf2X\xa8\xb0\xff\xbc\x00\x00\x00\x00\x00\x00\xf0?\xc06~d\x19\x08\xe4?\x00\x00\x00\x00\x00\x00\x00\x00\x00\x00\x00\x00\x00\x00\x00\x00\x00\x00\x00\x00\x00\x00\x00\x00\x00\x00\x00\x00\x00\x00\xf0?'
p341
tp342
bsg196
g37
(g38
(I0
tp343
g40
tp344
Rp345
(I1
(I8
tp346
g47
I00
S"333333\xc3?\xfc\x04\xedaq0\xe7?\xe9\xaf\xfc\x9e\xfd\xed\xa9\xbf\xf6\xb5pQ\x14\xd5\xfb\xbf/\x01\xf06\x0c\x02\x02@\xde\x0c\xccD\xf0\x13\xf8\xbf8\xdc\xa2'\xc0\x0b\x9a\xbfM}\xc5\xbft'\x06@"
p347
tp348
bsg203
g204
sg205
g37
(g38
(I0
tp349
g40
tp350
Rp351
(I1
(I8
tp352
g47
I00
S"233333\xc3?\xfc\x04\xedaq0\xe7?\xe9\xaf\xfc\x9e\xfd\xed\xa9\xbf\xf5\xb5pQ\x14\xd5\xfb\xbf/\x01\xf06\x0c\x02\x02@\xdd\x0c\xccD\xf0\x13\xf8\xbf\x02\xdc\xa2'\xc0\x0b\x9a\xbfM}\xc5\xbft'\x06@"
p353
tp354
bsg78
g336
saa(lp355
g213
ag204
ag283
aa(lp356
g215
ag336
ag283
aa(lp357
g2
aS'<trajectory>\n<configuration>\n<group name="joint_values fetch 14 13 12 15 4 5 16 17" offset="0" dof="8" interpolation="linear"/>\n<group name="joint_velocities fetch 14 13 12 15 4 5 16 17" offset="8" dof="8" interpolation="next"/>\n<group name="deltatime" offset="16" dof="1" interpolation=""/>\n</configuration>\n<data count="11">\n0.15 0.72466344 -0.05064385 -1.73952133 2.25099986 -1.50486781 -0.02543544999999981 2.76926565 0 0 0 0 0 0 0 0 0 0.1510103796437355 0.706655800742487 -0.0438041766212446 -1.772052917834197 2.179084213238314 -1.47307673541237 -0.0008247839872869457 2.816950399809641 0.02136930567021554 -0.3808575816809512 0.1446575770021349 -0.6880358770850157 -1.521 0.6723741859406702 0.5205101350111059 1.008521896504783 0.04728181904121379 0.1529280019015149 0.6724962647231137 -0.03082088089945781 -1.833784872906626 2.042653325163504 -1.412765076612226 0.04589691078600426 2.907402606642183 0.02137861517461593 -0.3808276484792594 0.1447442956026898 -0.6882188116644014 -1.521 0.6723846361296026 0.5208768978415603 1.00840658983953 0.08969815126548951 0.15606513648049 0.6166701638291168 -0.009573933867521395 -1.934741165341418 1.819652703990115 -1.31418070068074 0.1223721671781914 3.05521592135193 0.02139716772766808 -0.3807679952323918 0.1449171139772218 -0.6885833769670391 -1.521 0.672405462383001 0.5216078070117818 1.008176795609543 0.1466144780890132 0.1677908091155802 0.408051631234682 0.06984598715887685 -2.312060144401835 0.9862876439470906 -0.9457634133100774 0.4082444208992465 -2.675608460810552 0.0214008829180472 -0.3807560495273865 0.144951721247967 -0.6886563820197411 -1.521 0.672409632894674 0.5217541732398482 1.008130778734161 0.5479060223820017 0.1694336522041107 0.3788264135245472 0.08097367050639205 -2.364922844986017 0.8695399425466079 -0.8941509403259953 0.4482995565030254 -2.598229285814094 0.02140311378879577 -0.3807488764565207 0.1449725019725369 -0.688700219567741 -1.521 0.6724121371734721 0.5218420621778168 1.008103146852413 0.07675720013180976 0.1842154451377307 0.1158788835963158 0.181098558877991 -2.840557931097505 -0.1808793583395115 -0.4297750980769444 0.8087117737979439 -1.902029213060564 0.02140393558369464 -0.3807462340833352 0.1449801570522669 -0.6887163681829606 -1.521 0.672413059684802 0.5218744381820933 1.008092967984146 0.6906109802012621 0.1864372044553662 0.07636487202221699 0.1961486753101745 -2.912042912831109 -0.3387342966058305 -0.3599891861918534 0.8628888070591729 -1.797410355892943 0.02140760345693011 -0.3807344405203687 0.1450143235603501 -0.688788443433897 -1.521 0.6724171770803001 0.5220189402710086 1.008047537185619 0.1037836543499796 0.1875281289214649 0.06107246747005869 0.2070486387500663 -2.991589082480663 -0.4378255638761071 -0.3069831195102763 0.9179343295547431 -1.808762851091818 0.01674512960269523 -0.2347305465414082 0.1673088340555352 -1.220992801585297 -1.521 0.813615867912734 0.8449204659720417 -0.1742549638646923 0.0651487621763817 0.1876516378567202 0.05978142321926875 0.2088276977544151 -3.007979343677963 -0.4533313391831369 -0.297599219282194 0.9286490137546914 -1.819641795985951 0.01183828219394999 -0.123746076622937 0.1705220961513726 -1.571 -1.486222380114177 0.899443094948737 1.026998207990248 -1.042742530027455 0.01043301158325888 0.1935965532876638 -0.003124158893450968 0.3 2.400000000000001 -1.264819942329896 0.19922602990637 1.492752457991374 -2.438861568825026 0.01067115916880405 -0.1129159005083715 0.1636548341772676 -1.571 -1.456626952635241 0.8918043283805696 1.012569095564881 -1.111503238892616 0.5571011861881749 </data>\n</trajectory>\n'
p358
a(dp359
g5
g6
(g7
g8
Ntp360
Rp361
(dp362
g12
(dp363
sg14
g15
((lp364
S'(init)'
p365
aS'(crushed object2)'
p366
aS'(crushed object1)'
p367
aS'(delicate object11)'
p368
aS'(delicate object7)'
p369
aS'(crushed object3)'
p370
aS'(delicate object3)'
p371
aS'(ingripper object1 gripper)'
p372
atp373
Rp374
sg26
g15
((lp375
tp376
Rp377
sbsg30
S'object1'
p378
sg32
S'gripper'
p379
sg34
S'traj'
p380
sg36
g37
(g38
(I0
tp381
g40
tp382
Rp383
(I1
(I4
I4
tp384
g47
I00
S'\x00\x00\x00\x00\x00\x00\xf0?\x00\x00\x00\x00\x00\x00\x00\x00\x00\x00\x00\x00\x00\x00\x00\x00\x917\x03.\xa3\xc8\xe4?\x00\x00\x00\x00\x00\x00\x00\x00\x00\x00\x00\x00\x00\x00\xf0?\x00\x00\x00\x00\x00\x00\x00\x00\x1c1\xb4mo\xb2\xca\xbf\x00\x00\x00\x00\x00\x00\x00\x00\x00\x00\x00\x00\x00\x00\x00\x00\x00\x00\x00\x00\x00\x00\xf0?\xfe\xd4x\xe9&1\xe4?\x00\x00\x00\x00\x00\x00\x00\x00\x00\x00\x00\x00\x00\x00\x00\x00\x00\x00\x00\x00\x00\x00\x00\x00\x00\x00\x00\x00\x00\x00\xf0?'
p385
tp386
bsg52
S'fetch'
p387
sg54
g55
sg56
g285
sg75
g76
sg77
g358
sg78
S'<trajectory>\n<configuration>\n<group name="joint_values fetch 14 13 12 15 4 5 16 17" offset="0" dof="8" interpolation="linear"/>\n<group name="joint_velocities fetch 14 13 12 15 4 5 16 17" offset="8" dof="8" interpolation="next"/>\n<group name="deltatime" offset="16" dof="1" interpolation=""/>\n</configuration>\n<data count="11">\n0.1850776237692477 -0.06715689145110354 0.2999999999999999 2.400000000000003 -0.8939589783885833 0.1634410419964255 1.167798347080506 -2.495104815505563 0 0 0 0 0 0 0 0 0 0.2277527711561273 0.1872449958676147 0.004373212569534879 1.972299751220733 -1.077565273733469 -0.1960432955504973 1.310988045193154 -2.193321336590996 0.1 0.5961359313241261 -0.6927375897507853 -1.002223249288098 -0.4302417369068888 -0.842373980077795 0.3355341618730323 0.7071644678311064 0.4267514738687961 0.2242564711929831 0.21141784219999 0.001895135661868459 2.087938674639452 -0.9278690374289345 -0.2549110824003085 1.250885398502334 -2.25271006356545 -0.03552442182396524 0.2456100445755105 -0.02517868898783031 1.174958080856865 1.521 -0.5981306277895415 -0.6106775151698806 -0.603423679566547 0.09841961624229748 0.2207910154403968 0.2353737900119988 -0.0005588685319565653 2.202550647636894 -0.7795046713536884 -0.3132520329611937 1.191317173741458 -2.311571903763399 -0.0355271170505361 0.2455912938258075 -0.02515793028708002 1.174977627988492 1.521 -0.5980990459535406 -0.6106808006401013 -0.603439095986663 0.09754396191666409 0.2187172343023202 0.2497088951067515 -0.002027080750694531 2.271135261676791 -0.6907227229513447 -0.3481631182654948 1.155671218650982 -2.346795316034596 -0.03552773021741035 0.2455870280105647 -0.02515320766086606 1.174982074981462 1.521 -0.5980918610526939 -0.6106815480880238 -0.6034426032384262 0.05837077475499255 0.1758584948031107 0.5459673416435804 -0.03236781941028819 -2.594623377568798 1.144115798751913 -1.069659626101238 0.4189830976330489 -3.074752294462016 -0.03552799987967564 0.2455851519643384 -0.02515113071552645 1.174984030707132 1.521 -0.5980887012332102 -0.6106818768052283 -0.6034441456789805 1.206336963644483 0.1651891453586752 0.6197184551232275 -0.03992083742585602 -2.241766269409026 1.600884190709804 -1.249270316733524 0.2355904645810194 3.027213889007434 -0.03552802862611913 0.2455849519747079 -0.02515090930971805 1.174984239190723 1.521 -0.5980883643912277 -0.6106819118470259 -0.6034443101056934 0.3003079500051883 0.1603862277846812 0.6529158641571882 -0.04331944221941431 -2.082928501747359 1.806495735244742 -1.330118948977899 0.1530371615617667 2.945638194587285 -0.03552931644265539 0.2455759926071382 -0.02514099051536374 1.174993579080593 1.521 -0.5980732741531428 -0.6106834816901416 -0.6034516762844672 0.1351818175772108 0.1561649603508969 0.6820915639459407 -0.04630562319987883 -1.943329125641203 1.98720272110107 -1.401173673917292 0.08048294941389864 2.873942728821391 -0.03553015804209449 0.2455701375815889 -0.02513450849596737 1.174999682780819 1.521 -0.598063412549762 -0.6106845075964346 -0.6034564901471192 0.1188080117398604 0.1516683233017522 0.7131455372717959 -0.0494714632223925 -1.794669626850361 2.179620846553279 -1.476812169199947 0.003224496771736973 2.797590571806932 -0.03554439029938409 0.2454711234589841 -0.02502489130338839 1.175102902231678 1.521 -0.5978966433361889 -0.6107018566601382 -0.6035378972020786 0.1265076432953384 0.15 0.72466344 -0.05064385 -1.73952133 2.25099986 -1.50486781 -0.02543545 2.76926565 -0.03554994135438908 0.2454325046489343 -0.02498213694242269 1.175143161260002 1.521 -0.5978315977809509 -0.610708623373594 -0.6035696486685262 0.04692900292355062 </data>\n</trajectory>\n'
p388
sg80
g388
sg81
g37
(g38
(I0
tp389
g40
tp390
Rp391
(I1
(I4
I4
tp392
g47
I00
S'\x00\x00\x00\x00\x00\x00\xf0?\x00\x00\x00\x00\x00\x00\x00\x00\x00\x00\x00\x00\x00\x00\x00\x00\xc4j6a\xd6\xfb\xe7?\x00\x00\x00\x00\x00\x00\x00\x00\x00\x00\x00\x00\x00\x00\xf0?\x00\x00\x00\x00\x00\x00\x00\x00\x1c1\xb4mo\xb2\xca\xbf\x00\x00\x00\x00\x00\x00\x00\x00\x00\x00\x00\x00\x00\x00\x00\x00\x00\x00\x00\x00\x00\x00\xf0?\xfe\xd4x\xe9&1\xe4?\x00\x00\x00\x00\x00\x00\x00\x00\x00\x00\x00\x00\x00\x00\x00\x00\x00\x00\x00\x00\x00\x00\x00\x00\x00\x00\x00\x00\x00\x00\xf0?'
p393
tp394
bsg88
g37
(g38
(I0
tp395
g40
tp396
Rp397
(I1
(I8
tp398
g47
I00
S"333333\xc3?\xfc\x04\xedaq0\xe7?\xe9\xaf\xfc\x9e\xfd\xed\xa9\xbf\xf6\xb5pQ\x14\xd5\xfb\xbf/\x01\xf06\x0c\x02\x02@\xde\x0c\xccD\xf0\x13\xf8\xbf8\xdc\xa2'\xc0\x0b\x9a\xbfM}\xc5\xbft'\x06@"
p399
tp400
bsg95
g37
(g38
(I0
tp401
g40
tp402
Rp403
(I1
(I4
I4
tp404
g47
I00
S'\x00\x00\x00\x00\x00\x00\xf0?\x00\x00\x00\x00\x00\x00\x00\x00\x00\x00\x00\x00\x00\x00\x00\x00\xc4j6a\xd6\xfb\xe7?\x00\x00\x00\x00\x00\x00\x00\x00\x00\x00\x00\x00\x00\x00\xf0?\x00\x00\x00\x00\x00\x00\x00\x00\x1c1\xb4mo\xb2\xca\xbf\x00\x00\x00\x00\x00\x00\x00\x00\x00\x00\x00\x00\x00\x00\x00\x00\x00\x00\x00\x00\x00\x00\xf0?\xfe\xd4x\xe9&1\xe4?\x00\x00\x00\x00\x00\x00\x00\x00\x00\x00\x00\x00\x00\x00\x00\x00\x00\x00\x00\x00\x00\x00\x00\x00\x00\x00\x00\x00\x00\x00\xf0?'
p405
tp406
bsg102
g37
(g38
(I0
tp407
g40
tp408
Rp409
(I1
(I8
tp410
g47
I00
S"333333\xc3?\xfc\x04\xedaq0\xe7?\xe9\xaf\xfc\x9e\xfd\xed\xa9\xbf\xf6\xb5pQ\x14\xd5\xfb\xbf/\x01\xf06\x0c\x02\x02@\xde\x0c\xccD\xf0\x13\xf8\xbf8\xdc\xa2'\xc0\x0b\x9a\xbfM}\xc5\xbft'\x06@"
p411
tp412
bsg109
g37
(g38
(I0
tp413
g40
tp414
Rp415
(I1
(I8
tp416
g47
I00
S"233333\xc3?\xfc\x04\xedaq0\xe7?\xe9\xaf\xfc\x9e\xfd\xed\xa9\xbf\xf5\xb5pQ\x14\xd5\xfb\xbf/\x01\xf06\x0c\x02\x02@\xdd\x0c\xccD\xf0\x13\xf8\xbf\x02\xdc\xa2'\xc0\x0b\x9a\xbfM}\xc5\xbft'\x06@"
p417
tp418
bsg116
S'<trajectory>\n<configuration>\n<group name="joint_values fetch 14 13 12 15 4 5 16 17" offset="0" dof="8" interpolation="quadratic"/>\n<group name="joint_velocities fetch 14 13 12 15 4 5 16 17" offset="8" dof="8" interpolation="linear"/>\n<group name="deltatime" offset="16" dof="1" interpolation=""/>\n<group name="iswaypoint" offset="17" dof="1" interpolation="next"/>\n</configuration>\n<data count="12">\n0.1935965532876637 -0.003124158893450968 0.2999999999999999 2.400000000000001 -1.264819942329896 0.19922602990637 1.492752457991374 -2.438861568825026 0 0 0 0 0 0 0 0 0 1 0.1935965532876637 -0.003124158893450968 0.2999999999999999 2.400000000000001 -1.264819942329896 0.19922602990637 1.492752457991374 -2.438861568825026 0 0 0 0 0 0 0 0 0 1 0.1923299340578054 -0.01264473189767272 0.2999999999999999 2.400000000000001 -1.209679255050303 0.1939054137739089 1.444437335203768 -2.447223978402571 -0.01078797634337659 -0.08108807597719811 0 2.249495728238894e-15 0.4696410854241471 -0.0453164452395043 -0.4115067807065535 -0.07122383315329264 0.2348205427120734 1 0.1899122761883534 -0.03081711370173167 0.2999999999999999 2.400000000000002 -1.093943464931743 0.1837496943913629 1.35221590506327 -2.463185717215738 -0.01629280819480123 -0.122465273071637 0 2.283470345419655e-15 0.8267441621158337 -0.06844028266809996 -0.6214882972957624 -0.1075675562801554 0.1785515383458433 1 0.1896267338676616 -0.03296339921979089 0.2999999999999999 2.400000000000002 -1.079389460359239 0.1825502328308887 1.341323908510509 -2.465070910319599 -0.01682445896859369 -0.1264614385216264 0 -2.283470345419655e-15 0.8612327954058919 -0.07067355816020954 -0.641768087630877 -0.1110775941967334 0.01724431664502257 1 0.1895622315481445 -0.03344823240993033 0.2999999999999999 2.400000000000002 -1.076113743402522 0.1822792815665199 1.338863470981937 -2.465496764279327 -0.01694224589993077 -0.1273467867400447 0 2.283470345419655e-15 0.8535918580068284 -0.07116833909533329 -0.64626106382728 -0.1118552411322305 0.003820468699464643 1 0.1891985066420829 -0.03618217915571033 0.2999999999999999 2.400000000000002 -1.058576739323413 0.1807514028186298 1.324989203891231 -2.467898130503952 -0.01759168360501027 -0.132228300408464 -5.270516677330825e-15 -2.283470345419655e-15 0.8114622873180787 -0.07389639552252514 -0.6710338303584295 -0.1161429259844064 0.02106478534448757 1 0.1884949218151372 -0.04147069092917256 0.2999999999999999 2.400000000000002 -1.028682585441831 0.1777958936233201 1.298150998293184 -2.472543302752066 -0.01878433031604109 -0.1411928572482551 0 -2.286751577617295e-15 0.734094291091407 -0.07890627945715359 -0.7165272753706415 -0.1240169579299547 0.03868399811328477 1 0.1878151635558046 -0.04658010975105658 0.2999999999999999 2.400000000000002 -1.002103626522325 0.1749404713499798 1.27222165584256 -2.477031168437553 -0.01681106206800939 -0.1263607404056981 0 2.554138579663663e-14 0.6577070719818625 -0.07061728255370517 -0.6412570635745054 -0.1109891458556203 0.03819360955476601 1 0.1851001204682909 -0.06698779448767095 0.2999999999999999 2.400000000000003 -0.8949383441028561 0.1635355426143181 1.168656482462445 -2.494956288934114 -0.0014377267263373 -0.01080670649516174 0 -2.2556501234888e-14 0.06258963857614508 -0.006039377765543336 -0.05484200909041315 -0.00949208685826422 0.2975587167028687 1 0.1850776237692477 -0.06715689145110357 0.2999999999999999 2.400000000000003 -0.8939589783885832 0.1634410419964256 1.167798347080506 -2.495104815505563 2.775557561562891e-17 8.326672684688674e-17 0 -5.522026336547083e-30 -6.661338147750939e-16 -1.52655665885959e-16 -1.110223024625157e-16 -1.887379141862766e-15 0.03129481928806732 1 0.1850776237692477 -0.06715689145110358 0.3 2.400000000000003 -0.8939589783885832 0.1634410419964256 1.167798347080506 -2.495104815505563 0 0 0 0 0 0 0 0 2.220446049250313e-16 1 </data>\n</trajectory>\n'
p419
saa(lp420
g119
ag419
ag359
aa(lp421
g121
ag55
ag359
aa(lp422
g123
ag388
ag359
aa.