(lp0
ccopy_reg
_reconstructor
p1
(cgeometry_msgs.msg._Pose
Pose
p2
c__builtin__
object
p3
Ntp4
Rp5
(lp6
g1
(cgeometry_msgs.msg._Point
Point
p7
g3
Ntp8
Rp9
(lp10
F1.0523545544624242
aF0.0033958955697828384
aF0.4603805778594554
abag1
(cgeometry_msgs.msg._Quaternion
Quaternion
p11
g3
Ntp12
Rp13
(lp14
F0.9998875686126232
aF0.012380469413653623
aF0.008189410609474113
aF-0.0021231262100743433
ababa(lp15
(lp16
I0
ag1
(g2
g3
Ntp17
Rp18
(lp19
g1
(g7
g3
Ntp20
Rp21
(lp22
F1.1404686409193308
aF0.1931408210821608
aF0.7518291269837548
abag1
(g11
g3
Ntp23
Rp24
(lp25
F0.5035894124195199
aF-0.4727523424079654
aF-0.4708026950376489
aF0.5488604092044088
ababaa(lp26
I1
ag1
(g2
g3
Ntp27
Rp28
(lp29
g1
(g7
g3
Ntp30
Rp31
(lp32
F1.149491872661871
aF-0.2085704122222375
aF0.7458742907260454
abag1
(g11
g3
Ntp33
Rp34
(lp35
F-0.46036355642265614
aF0.5391846812445464
aF0.5180662406232937
aF-0.4784899641116289
ababaa(lp36
I2
ag1
(g2
g3
Ntp37
Rp38
(lp39
g1
(g7
g3
Ntp40
Rp41
(lp42
F0.9591168869814066
aF0.2328404467935183
aF0.7403914737803667
abag1
(g11
g3
Ntp43
Rp44
(lp45
F-0.5013104405161141
aF0.5066781704659321
aF0.5057328960796237
aF-0.48600340701043626
ababaa(lp46
I3
ag1
(g2
g3
Ntp47
Rp48
(lp49
g1
(g7
g3
Ntp50
Rp51
(lp52
F0.9207716093834554
aF-0.20378896553840972
aF0.7437284339233539
abag1
(g11
g3
Ntp53
Rp54
(lp55
F-0.5061803402967335
aF0.5068318367006532
aF0.49089531432933176
aF-0.49590799829528054
ababaa(lp56
I4
ag1
(g2
g3
Ntp57
Rp58
(lp59
g1
(g7
g3
Ntp60
Rp61
(lp62
F1.2712346837069057
aF-0.011303421265406368
aF0.7348311848672118
abag1
(g11
g3
Ntp63
Rp64
(lp65
F0.5291144659798427
aF-0.4866449046570653
aF-0.4833221804082002
aF0.49961413969947366
ababaaa.