(lp0
(lp1
VBaseTrajectory
p2
aS'<trajectory>\n<configuration>\n<group name="deltatime" offset="6" dof="1" interpolation=""/>\n<group name="joint_velocities fetch 2 3 1" offset="3" dof="3" interpolation="next"/>\n<group name="joint_values fetch 2 3 1" offset="0" dof="3" interpolation="linear"/>\n</configuration>\n<data count="16">\n0 0 0 0 0 0 0 0.006284407973910716 0.01506408955098595 0.03386818030360249 0.1855549343831223 0.4447859145648758 1 0.03386818030360249 0.01075794304650623 0.02535863958474267 0.05711591061948867 0.1924288957162648 0.442819573948774 0.9999999999999999 0.02324773031588619 0.0273986804608271 0.0635066724647253 0.1433003470939954 0.1930828592148792 0.4426325035062079 1 0.08618443647450669 0.2520831723357957 0.5779992707656435 1.305794053744249 0.1932780285945814 0.4425766740565312 1 1.162493706650254 0.2826570348983645 0.6480007435257495 1.463964054461552 0.1932974800778655 0.4425711098352959 1 0.1581700007173024 0.3052277406940156 0.6996242721065715 1.580622210380877 0.1934773065610582 0.4425196693193221 1 0.1166581559193258 0.4238425048266973 0.7395999681474925 1.729068465314886 0.7990418093431295 0.2692940691477335 1 0.1484462549340086 0.4438159833326421 0.7396127609571196 1.740570244061474 1.736555618570676 0.001112246193299966 0.9999999999999999 0.01150177874658831 0.511227341162549 0.7395931219263306 1.779263077739148 1.742218168652893 -0.0005075624843748493 1 0.03869283367767329 1.449317913511723 0.7392534654295755 2.317575882296873 1.742649560639568 -0.0006309649220293362 1 0.5383128045577255 1.486757714970643 0.7392211641442288 2.339022642969328 1.745708922233878 -0.00150611487860675 1 0.02144676067245532 1.652408562530088 0.5884639089708114 2.533022156933143 0.8538724874864491 -0.777101200374847 1 0.1939995139638149 1.712466197064464 0.4871103987391109 2.63793346397249 0.5724610266446484 -0.9660875752285494 1 0.1049113070393468 1.974280688874199 0.04470960511441343 3.095698311957443 0.5719410150478418 -0.9664367973471829 1 0.4577648479849525 2 0 3.141592653589793 0.5604026599146562 -0.9741855645859844 1 0.04589434163235051 </data>\n</trajectory>\n'
p3
a(dp4
S'next_hl_state'
p5
ccopy_reg
_reconstructor
p6
(cStates.PDDLState
PDDLState
p7
c__builtin__
object
p8
Ntp9
Rp10
(dp11
S'_PDDLState__objDict'
p12
(dp13
sS'_PDDLState__trueSet'
p14
c__builtin__
set
p15
((lp16
S'(init)'
p17
aS'(revived)'
p18
aS'(delicate object11)'
p19
aS'(delicate object7)'
p20
aS'(delicate object3)'
p21
aS'(ingripper object1 gripper)'
p22
atp23
Rp24
sS'_PDDLState__falseSet'
p25
g15
((lp26
tp27
Rp28
sbsVtbpose
p29
(lp30
F2.0
aI0
aF3.141592653589793
asVobj
p31
S'object1'
p32
sVtraj2
p33
S'<trajectory>\n<configuration>\n<group name="deltatime" offset="16" dof="1" interpolation=""/>\n<group name="joint_velocities fetch 14 13 12 15 4 5 16 17" offset="8" dof="8" interpolation="next"/>\n<group name="joint_values fetch 14 13 12 15 4 5 16 17" offset="0" dof="8" interpolation="linear"/>\n</configuration>\n<data count="16">\n0.1132876058836299 -0.5338577622033474 0.3 -1.1 -0.6919082846083282 0.04722146767598241 0.08684044104972043 0.9716240274455468 0 0 0 0 0 0 0 0 0 0.1160012416230957 -0.5310871199634555 0.2915086565664237 -1.074069733160604 -0.7035276182665534 0.02501424275309291 0.114086572303382 0.9997592136829793 0.09999999999999999 0.102100742542448 -0.3129139003471328 0.9555544416768612 -0.4281832483718829 -0.8183568855582961 1.004045268766426 1.036807771516552 0.02713635739465842 0.1174758154374656 -0.5142369940662695 0.2828039570056119 -1.078665547717671 -0.6720717881719799 -0.005226615097158584 0.1238809448109406 1.036686201572536 0.0713008292870804 0.8147628408649461 -0.4209028339798515 -0.2222237950892989 1.521 -1.462251819517787 0.473592352807328 1.785549718800957 0.02068101912858221 0.1205802857232432 -0.4779040291220145 0.2642808131355472 -1.089209734308974 -0.6037017265091702 -0.06984069691030786 0.1441920969257849 1.115531371321547 0.0690638444639011 0.808284186618956 -0.4120765893896169 -0.2345720833844922 1.521 -1.437442296344439 0.4518536566346646 1.754035322941328 0.04495073087627198 0.1307117757433952 -0.3446532849782751 0.2004621810395596 -1.138480411905386 -0.3438729506436042 -0.2969127831887418 0.2051861644111967 1.39169125275106 0.05930827434073059 0.7800305457602207 -0.3735850238089857 -0.2884234064317684 1.521 -1.329247086197235 0.3570504319094784 1.616599925297016 0.1708275975447508 0.1354035775038768 -0.2750033136956049 0.1690857255410652 -1.169338480558278 -0.2036872850731999 -0.4108360719680657 0.2305683516232756 1.529777679736613 0.05090556476409931 0.7556949984143506 -0.3404313031509077 -0.3348068593894646 1.521 -1.23605592289554 0.2753941110347198 1.498223478059856 0.09216677552294826 0.1378240262126937 -0.2201194245069311 0.1485499920026394 -1.204445110009071 -0.08397590626662857 -0.4905298040494225 0.2368298539984406 1.625351477442386 0.03075315415136084 0.6973304984721342 -0.2609179764140437 -0.4460493557670406 1.521 -1.012553423944774 0.07955588856773828 1.214318536463977 0.07870570598722643 0.1380765522757964 -0.2130785688309676 0.1461057853952542 -1.209438905685528 -0.06819864235228801 -0.5002957264268382 0.2370090890674003 1.637011055871713 0.02434466103023869 0.6787705106084002 -0.2356326337707889 -0.4814246161520963 1.521 -0.9414793348641295 0.01727907585040474 1.12403639105555 0.01037295457879064 0.1403693598255197 -0.1273892824182369 0.1209891798455291 -1.265360550995685 0.1316490329345985 -0.6085039724138935 0.2288966476275269 1.763788644993924 0.0174500918167947 0.6521637264314752 -0.1911573751673187 -0.4256082658687246 1.521 -0.8235509465398861 -0.06174214142013105 0.9648784394317915 0.1313922914443698 0.1406606011405547 -0.1029609282221137 0.115978701751837 -1.27904884709483 0.1922589642234695 -0.634409106343696 0.2218044993881021 1.792908844395146 0.007308670885255585 0.6130270393348206 -0.1257374330979468 -0.3435063845819321 1.521 -0.6500866750605326 -0.1779767315813783 0.7307684128226536 0.03984873851996778 0.140787400357351 -0.09218195145995872 0.1137779829478624 -1.285078149439298 0.2190201795233865 -0.6458163779889533 0.2186525386366229 1.805724947103748 0.007206758235219201 0.6126337489347314 -0.1250800183523722 -0.3426813305435183 1.521 -0.6483435067498674 -0.1791447902971266 0.7284158062823385 0.0175944873766713 0.1419688738318677 0.008849420687708512 0.09319226012155224 -1.341547178562806 0.4699235234973185 -0.7526410652978165 0.189016674822335 1.925714367947178 0.00716220488048398 0.6124618133928399 -0.1247926150480915 -0.3423206400380957 1.521 -0.6475814424125892 -0.1796554328355829 0.7273873126291117 0.1649594634937094 0.1493885140489565 0.643621943958637 -0.03612571228725552 -1.696316272954614 2.046365205832937 -1.423765238032463 0.002771018639035255 2.679531675158253 0.007158699808972413 0.6124482869957082 -0.1247700046489391 -0.3422922640376237 1.521 -0.6475214898003925 -0.1796956057613869 0.7273063996692447 1.036450810214082 0.1501430774571862 0.7086600325621005 -0.04934200300936947 -1.732630414048324 2.207942326012065 -1.492450884356493 -0.01638595010399511 2.756657590259025 0.007103053592271705 0.6122335430672373 -0.1244110438783034 -0.3418417690716382 1.521 -0.6465696872368578 -0.1803333877088943 0.7260218324118171 0.1062308482440022 0.1502504365895588 0.7179581488863417 -0.05122839567441916 -1.737818823368201 2.231047247745871 -1.502263427221174 -0.01913152078218378 2.767673827071373 0.007067465634383185 0.6120962058260583 -0.1241814742589007 -0.3415536597116623 1.521 -0.6459609718280153 -0.1807412745058028 0.7252003008113997 0.01519061257975423 0.15 0.72466344 -0.05064385 -1.73952133 2.25099986 -1.50486781 -0.02543545 2.76926565 -0.01909093645821352 0.5111484979498744 0.04456027909867009 -0.1297831358613438 1.521 -0.1985337135880003 -0.4805524318408085 0.1213456485599355 0.01311808826701456 </data>\n</trajectory>\n'
p34
sVgripper
p35
S'gripper'
p36
sVtrajectory
p37
S'traj'
p38
sVrobot
p39
S'fetch'
p40
sVgripper_close_traj
p41
S'close'
p42
sVtraj
p43
S'<trajectory>\n<configuration>\n<group name="deltatime" offset="16" dof="1" interpolation=""/>\n<group name="joint_velocities fetch 14 13 12 15 4 5 16 17" offset="8" dof="8" interpolation="next"/>\n<group name="joint_values fetch 14 13 12 15 4 5 16 17" offset="0" dof="8" interpolation="linear"/>\n</configuration>\n<data count="18">\n0 1.32000492 1.39998343 -0.1998453339999998 1.71996798 2.706226490100047e-06 1.660006469999998 -1.347754262488623e-06 0 0 0 0 0 0 0 0 0 0.003560116056996485 1.279369661235031 1.351119197215472 -0.2562113309528391 1.723546234412834 -0.0537749843227935 1.618476488785772 -0.03342839832259972 0.09922546620121026 -1.132562093653342 -1.361915230005101 -1.571 0.09973100781426052 -1.498860242348092 -1.157499272870791 -0.931659143486728 0.03587905598525736 0.01193778662567596 1.183370152476083 1.23973986411333 -0.3824233915474399 1.730111769409007 -0.1781704793105182 1.524501069725717 -0.1115907421392354 0.09999999999999999 -1.145897394412353 -1.329478548828858 -1.506529285914556 0.0783694577430432 -1.484845864586586 -1.121736863363775 -0.9329842129249057 0.08377670568679475 0.01948904998015848 1.096653433315962 1.14113911785167 -0.4929931392503994 1.735108591493 -0.2892253484861544 1.441659420223974 -0.1817954206987396 0.1 -1.148373657351584 -1.305751655491262 -1.464254953276448 0.0661720012854102 -1.470679328243965 -1.097056818347714 -0.9297077225869751 0.07551263354482517 0.03165814432776044 0.9558471797015964 0.9923935788632745 -0.6530907431095324 1.737941897785772 -0.4621319176682438 1.318718001417948 -0.2935304377661095 0.09999999999999999 -1.157080794941101 -1.222322177309003 -1.315608206215294 0.02328280323778485 -1.420866370521338 -1.010275829032858 -0.9181867925067757 0.1216909434760197 0.05760351042519069 0.6316174633895117 0.8495043029775531 -0.6136396511989397 1.615016054887312 -0.6765003835217822 1.22846073462285 -0.4693648398325365 0.1 -1.249663292838245 -0.5507313920687897 0.1520544815688692 -0.4737872745246598 -0.8262302603422138 -0.3478743235156637 -0.6777102369884944 0.2594536609743025 0.0741790655014241 0.4228540326982775 0.7610009261249341 -0.5673945388311902 1.526045623420174 -0.8003024706838567 1.171548192850244 -0.5725503844104316 0.09972482779582585 -1.256 -0.5324698916799175 0.2782281405396175 -0.535279869432699 -0.7448403245755565 -0.3424074428634771 -0.6208033828564499 0.166212922524868 0.1009491674835994 0.07932367826267481 0.6281120296632049 -0.4152597954065206 1.342396187379037 -0.9508874301022693 1.08177924584221 -0.7042115011742411 0.09787562483336562 -1.256 -0.4858623169709448 0.5562281040792409 -0.6714506846029162 -0.5505618545419712 -0.3282091261697447 -0.4813733648865777 0.2735114286907666 0.1141264352761657 -0.1020476303364929 0.5746744853453897 -0.2342057301964223 1.183216619033973 -0.9486475985718092 1.034972669816123 -0.7091264446721258 0.09125284740620364 -1.256 -0.3700560809841558 1.25380308307996 -1.102321747500021 0.01551087889251031 -0.32413649073178 -0.03403608366186475 0.1444039081203565 0.127761593681899 -0.2897884753620376 0.519367085377419 -0.04673716797828856 1.018216711719861 -0.9461113330917809 0.9864534614187084 -0.7139643534697987 0.0912202081293008 -1.256 -0.370010555509747 1.254178408081302 -1.103861461571278 0.01696780177207692 -0.3245970568570775 -0.03236596409827788 0.1494751950840324 0.1471159595788823 -0.5562886042793574 0.4408588788452923 0.2193866485943594 0.7839557585212135 -0.9424714987710024 0.9175674167357383 -0.7207864464133731 0.09121602929562868 -1.256 -0.370004726845529 1.254226461252278 -1.104058592439874 0.0171543328157864 -0.3246560235197975 -0.03215213730642424 0.2121816313035986 0.1649093654984371 -0.8013367927290564 0.3686744195060373 0.4641236513748758 0.5684087448743596 -0.938989430320017 0.8541836105130907 -0.7269043842711833 0.09120050213939156 -1.256 -0.3699830694676398 1.25440501085535 -1.104791065190921 0.01784742014257098 -0.324875124028868 -0.03135762805684633 0.1951020608675948 0.1649475739939341 -0.8390062697717986 0.343549857113769 0.4260322676847523 0.4267742843244833 -0.8629892570322318 0.7889723100427318 -0.6066291182954859 0.0004103176686324164 -0.4045291969169777 -0.2698104631477233 -0.4090600152515527 -1.521 0.8161591686227682 -0.7002984134675863 1.291625490285355 0.09311930345159519 0.1641122784184547 -0.8369297200303268 0.3405466483246733 0.4044056304203318 0.4011174794506834 -0.8440026527597905 0.7753746695934223 -0.5758598290867784 -0.04951842509436662 0.1231030976894498 -0.1780377794773342 -1.28208151564399 -1.521 1.125573711942342 -0.8061023664142919 1.824080945255788 0.01686837927271525 0.1580406408316755 -0.8015749537658483 0.3341714701156482 0.2376118447389852 0.2751493656896785 -0.7396848382400694 0.6980844649056004 -0.397752829656814 -0.05718763807575711 0.3330000429848588 -0.06004663138657041 -1.571 -1.18647050254385 0.9825503146956251 -0.7279822270869378 1.67755708020821 0.1061704555578273 0.153210127636917 -0.7734471764888274 0.3290994648210732 0.1049129501353109 0.1749308300679828 -0.6566909889652369 0.6365934176462927 -0.2560532971007925 -0.05718763710602511 0.3330000467161108 -0.06004662165103405 -1.571 -1.186470467081981 0.9825502887584087 -0.7279822151713503 1.677557046050526 0.08446778778082384 0.1124557551266583 -0.5361370051313011 0.2863076570103895 -1.014649292437976 -0.670599109902171 0.0435166519387774 0.1178019466251871 0.9394460837930219 -0.05718763707719917 0.3330000468270251 -0.06004662136163765 -1.571 -1.186470466027849 0.9825502879874035 -0.7279822148171501 1.677557045035162 0.7126430570167327 0.1132876058836299 -0.5338577622033474 0.3 -1.1 -0.6919082846083282 0.04722146767598234 0.08684044104972047 0.9716240274455468 0.0153113849495942 0.04195267669237911 0.2520268601293821 -1.571 -0.3922253771481106 0.06819235234716003 -0.5698901233327347 0.5922803796486509 0.0543289036040892 </data>\n</trajectory>\n'
p44
sS'current_hl_state'
p45
g6
(g7
g8
Ntp46
Rp47
(dp48
g12
(dp49
sg14
g15
((lp50
S'(empty gripper)'
p51
aS'(init)'
p52
aS'(revived)'
p53
aS'(delicate object11)'
p54
aS'(delicate object7)'
p55
aS'(delicate object3)'
p56
atp57
Rp58
sg25
g15
((lp59
tp60
Rp61
sbsS'attach'
p62
Vobj
p63
sVcbpose
p64
(lp65
cnumpy.core.multiarray
scalar
p66
(cnumpy
dtype
p67
(S'f8'
p68
I0
I1
tp69
Rp70
(I3
S'<'
p71
NNNI-1
I-1
I0
tp72
bS'\x00\x00\x00\x00\x00\x00\x00\x00'
p73
tp74
Rp75
ag66
(g70
S'\x00\x00\x00\x00\x00\x00\x00\x00'
p76
tp77
Rp78
ag66
(g70
S'\x00\x00\x00\x00\x00\x00\x00\x00'
p79
tp80
Rp81
asVgpose
p82
cnumpy.core.multiarray
_reconstruct
p83
(cnumpy
ndarray
p84
(I0
tp85
S'b'
p86
tp87
Rp88
(I1
(I4
I4
tp89
g70
I00
S'\x00\x00\x00\x00\x00\x00\xf0\xbf\x07\\\x143&\xa6\xa1\xbc\x00\x00\x00\x00\x00\x00\x00\x00\xe7\xe2y\xd7\xc9\xe4\xf1?\x07\\\x143&\xa6\xa1<\x00\x00\x00\x00\x00\x00\xf0\xbf\x00\x00\x00\x00\x00\x00\x00\x00_\x00Q\xa6\x8a\x93\xca?\x00\x00\x00\x00\x00\x00\x00\x00\x00\x00\x00\x00\x00\x00\x00\x00\x00\x00\x00\x00\x00\x00\xf0?\xc0\xca\xa1E\xb6\xf3\xe9?\x00\x00\x00\x00\x00\x00\x00\x00\x00\x00\x00\x00\x00\x00\x00\x00\x00\x00\x00\x00\x00\x00\x00\x00\x00\x00\x00\x00\x00\x00\xf0?'
p90
tp91
bsVendpose
p92
g83
(g84
(I0
tp93
g86
tp94
Rp95
(I1
(I8
tp96
g70
I00
S"333333\xc3?\xfc\x04\xedaq0\xe7?\xe9\xaf\xfc\x9e\xfd\xed\xa9\xbf\xf6\xb5pQ\x14\xd5\xfb\xbf/\x01\xf06\x0c\x02\x02@\xde\x0c\xccD\xf0\x13\xf8\xbf8\xdc\xa2'\xc0\x0b\x9a\xbfM}\xc5\xbft'\x06@"
p97
tp98
bsVbase_traj
p99
g3
sVcpose
p100
g83
(g84
(I0
tp101
g86
tp102
Rp103
(I1
(I8
tp104
g70
I00
S'\x00\x00\x00\x00\x00\x00\x00\x00uX\x9fz\xbd\x1e\xf5?\xa7\xabl\x06Uf\xf6?\x9d\xe3\xe4*\x88\x94\xc9\xbfbF\x04%\xfd\x84\xfb?k(#\xbf\x93\xb3\xc6>=\xc6\xbc\xf1b\x8f\xfa?\xc9J\xa5{\x8f\x9c\xb6\xbe'
p105
tp106
bsaa(lp107
VManipTrajectory
p108
ag44
ag4
aa(lp109
VGripperCloseTrajectory
p110
ag42
ag4
aa(lp111
VManipTrajectory
p112
ag34
ag4
aa.