ccopy_reg
_reconstructor
p0
(csrc.DataStructures.RefinedPolicy
RefinedPolicy
p1
c__builtin__
object
p2
Ntp3
Rp4
(dp5
S'graph'
p6
g0
(cnetworkx.classes.digraph
DiGraph
p7
g2
Ntp8
Rp9
(dp10
S'adjlist_inner_dict_factory'
p11
c__builtin__
dict
p12
sS'node_dict_factory'
p13
g12
sS'edge_attr_dict_factory'
p14
g12
sS'_node'
p15
(dp16
g0
(csrc.DataStructures.RefinedPolicyNode
RefinedPolicyNode
p17
g2
Ntp18
Rp19
(dp20
S'parent'
p21
NsS'goal'
p22
I00
sS'hl_state'
p23
g0
(csrc.States.PDDLState
PDDLState
p24
g2
Ntp25
Rp26
(dp27
S'_PDDLState__objDict'
p28
(dp29
sS'_PDDLState__trueSet'
p30
c__builtin__
set
p31
((lp32
S'(delicate object3)'
p33
aS'(delicate object10)'
p34
aS'(delicate object13)'
p35
aS'(delicate object5)'
p36
aS'(empty gripper)'
p37
atp38
Rp39
sS'_PDDLState__falseSet'
p40
g31
((lp41
tp42
Rp43
sbsS'll_state'
p44
NsS'visited'
p45
I00
sS'children'
p46
(lp47
g0
(g17
g2
Ntp48
Rp49
(dp50
g21
g19
sg22
I00
sg23
g0
(g24
g2
Ntp51
Rp52
(dp53
g28
(dp54
sg30
g31
((lp55
g33
ag34
ag35
ag36
aS'(ingripper object1 gripper)'
p56
atp57
Rp58
sg40
g31
((lp59
S'(obstructs traj object1 object5)'
p60
aS'(obstructs traj object1 object4)'
p61
aS'(obstructs traj object1 object0)'
p62
aS'(obstructs traj object1 object7)'
p63
aS'(obstructs traj object1 object6)'
p64
aS'(obstructs traj object1 object14)'
p65
aS'(obstructs traj object1 object13)'
p66
aS'(obstructs traj object1 object8)'
p67
aS'(obstructs traj object1 object10)'
p68
aS'(empty gripper)'
p69
aS'(obstructs traj object1 object11)'
p70
aS'(obstructs traj object1 object12)'
p71
aS'(obstructs traj object1 object9)'
p72
aS'(obstructs traj object1 object3)'
p73
aS'(obstructs traj object1 object2)'
p74
aS'(obstructs traj object1 object1)'
p75
atp76
Rp77
sbsg44
Nsg45
I00
sg46
(lp78
sbasb(dp79
sg49
(dp80
ssg6
(dp81
sS'_pred'
p82
(dp83
g19
(dp84
sg49
(dp85
g19
(dp86
S'label'
p87
NssssS'_succ'
p88
(dp89
g19
(dp90
g49
g86
ssg49
(dp91
ssS'_adj'
p92
g89
sS'adjlist_outer_dict_factory'
p93
g12
sbsS'edges'
p94
(dp95
g19
(dp96
g49
g0
(csrc.DataStructures.RefinedPolicyEdge
RefinedPolicyEdge
p97
g2
Ntp98
Rp99
(dp100
S'generated_values'
p101
(dp102
S'next_hl_state'
p103
g0
(g24
g2
Ntp104
Rp105
(dp106
g28
(dp107
sg30
g31
((lp108
g33
ag34
ag35
ag36
ag56
atp109
Rp110
sg40
g31
((lp111
g67
ag68
ag60
ag61
ag70
ag62
ag71
ag63
ag64
ag66
ag73
ag74
ag65
ag75
ag69
ag72
atp112
Rp113
sbsVtbpose
p114
(lp115
F1.0
aF-1.0
aF1.5707963267948966
asVobj
p116
S'object1'
p117
sVtraj2
p118
S'<trajectory>\n<configuration>\n<group name="joint_values fetch 11 10 9 12 1 2 13 14" offset="0" dof="8" interpolation="linear"/>\n<group name="joint_velocities fetch 11 10 9 12 1 2 13 14" offset="8" dof="8" interpolation="next"/>\n<group name="deltatime" offset="16" dof="1" interpolation=""/>\n</configuration>\n<data count="153">\n0.3642473234739999 -0.4418982954880002 0.3999999999999997 0.5000000000000004 1.91596326666 -0.6286468388969996 -1.96002035276 -0.823427883215 0 0 0 0 0 0 0 0 0 0.3632525787274789 -0.4289849844709547 0.3886548449918151 0.4701311654142601 1.880616610909825 -0.6253793533516506 -1.931453096826883 -0.8051509438175612 -0.04280480649010079 0.555671976317845 -0.4881927413278241 -1.285284178678947 -1.521 0.140602990834604 1.229276019247049 0.7864739742278681 0.0232390899080703 0.3574484037224589 -0.4047518662751902 0.3792866860130038 0.4767821511082055 1.845302746496663 -0.6525289673625251 -1.905240143729328 -0.8183638220370317 -0.09999999999999999 0.4175118457800692 -0.1614037993463117 0.114589682223451 -0.6084217719593098 -0.4677600862722586 0.4516223765631382 -0.2276443802614965 0.05804175005020007 0.3516442287174389 -0.3805187480794256 0.3699185270341925 0.4834331368021508 1.8099888820835 -0.6796785813733995 -1.879027190631774 -0.8315767002565022 -0.09999999999999999 0.4175118457800721 -0.1614037993463127 0.1145896822234491 -0.6084217719593251 -0.4677600862722586 0.4516223765631229 -0.2276443802614965 0.05804175005020007 0.3458400537124189 -0.356285629883661 0.3605503680553812 0.4900841224960962 1.774675017670338 -0.706828195384274 -1.852814237534219 -0.8447895784759727 -0.09999999999999999 0.4175118457800712 -0.1614037993463117 0.114589682223451 -0.608421771959306 -0.4677600862722586 0.4516223765631382 -0.2276443802614965 0.05804175005020007 0.3400358787073989 -0.3320525116878965 0.3511822090765698 0.4967351081900415 1.739361153257175 -0.7339778093951485 -1.826601284436664 -0.8580024566954432 -0.09999999999999999 0.4175118457800702 -0.1614037993463146 0.1145896822234501 -0.6084217719593251 -0.4677600862722586 0.4516223765631382 -0.2276443802614965 0.05804175005020007 0.3342317037023789 -0.3078193934921319 0.3418140500977585 0.5033860938839869 1.704047288844013 -0.7611274234060229 -1.800388331339109 -0.8712153349149137 -0.1 0.4175118457800762 -0.1614037993463133 0.1145896822234521 -0.6084217719593157 -0.4677600862722632 0.4516223765631426 -0.2276443802614987 0.05804175005019951 0.3284275286973589 -0.2835862752963673 0.3324458911189472 0.5100370795779323 1.66873342443085 -0.7882770374168974 -1.774175378241555 -0.8844282131343841 -0.09999999999999999 0.4175118457800712 -0.1614037993463127 0.114589682223451 -0.6084217719593251 -0.4677600862722586 0.4516223765631191 -0.2276443802614965 0.05804175005020007 0.324410150007963 -0.2953939479893817 0.3410804953631688 0.5345321946666316 1.61833613009392 -0.7870443023238954 -1.761920690495963 -0.8932082072313663 -0.1 -0.2939148535880228 0.2149313000293745 0.6097288053365644 -1.254482044970185 0.03068506078990766 0.3050418865898551 -0.2185503228798787 0.0401737868939589 0.3203927713185671 -0.3072016206823961 0.3497150996073903 0.5590273097553309 1.56793883575699 -0.7858115672308935 -1.749666002750372 -0.9019882013283484 -0.1 -0.2939148535880202 0.2149313000293674 0.6097288053365559 -1.254482044970173 0.03068506078990723 0.3050418865898233 -0.2185503228798757 0.04017378689395945 0.3169101068423202 -0.2863321467999693 0.3434055080581878 0.5822458303710195 1.530903237233467 -0.7934241770595478 -1.716165610972711 -0.9065006205533406 -0.09999999999999999 0.599238715781108 -0.1811713873741294 0.6666884155521671 -1.063427119555151 -0.2185857948870817 0.9619184393485654 -0.1295680148279728 0.03482664476246899 0.3129676337950095 -0.2704579459758769 0.3414830714689834 0.6095983609539951 1.506496258799516 -0.7595534232501951 -1.714116930171085 -0.8776512807026715 -0.1 0.4026457665936597 -0.04876219992209757 0.6937911877833641 -0.6190778767809212 0.8591245495630586 0.05196435782924407 0.7317574401770111 0.03942473047310657 0.3090251607476987 -0.2545837451517846 0.3395606348797789 0.6369508915369707 1.482089280365565 -0.7256826694408425 -1.712068249369458 -0.8488019408520024 -0.1 0.4026457665936398 -0.04876219992209691 0.6937911877833348 -0.6190778767809006 0.8591245495630222 0.05196435782927004 0.7317574401769801 0.03942473047310824 0.3050826877003879 -0.2387095443276922 0.3376381982905745 0.6643034221199463 1.457682301931614 -0.6918119156314898 -1.710019568567832 -0.8199526010013334 -0.1 0.4026457665936427 -0.04876219992209409 0.6937911877833348 -0.619077876780895 0.8591245495630222 0.05196435782923624 0.7317574401769801 0.03942473047310824 0.3011402146530772 -0.2228353435035998 0.3357157617013701 0.6916559527029219 1.433275323497663 -0.6579411618221371 -1.707970887766205 -0.7911032611506643 -0.1 0.4026457665936597 -0.04876219992209757 0.6937911877833641 -0.6190778767809269 0.8591245495630586 0.05196435782927223 0.7317574401770111 0.03942473047310657 0.2971977416057665 -0.2069611426795075 0.3337933251121656 0.7190084832858975 1.408868345063712 -0.6240704080127845 -1.705922206964579 -0.7622539212999953 -0.1 0.4026457665936512 -0.04876219992209829 0.6937911877833544 -0.6190778767809124 0.8591245495630464 0.05196435782924334 0.7317574401770007 0.03942473047310713 0.2932552685584557 -0.1910869418554151 0.3318708885229612 0.7463610138688731 1.384461366629761 -0.5901996542034318 -1.703873526162952 -0.7334045814493262 -0.1 0.4026457665936419 -0.04876219992209409 0.6937911877833348 -0.6190778767809006 0.8591245495630222 0.0519643578292644 0.7317574401769801 0.03942473047310824 0.289312795511145 -0.1752127410313228 0.3299484519337568 0.7737135444518487 1.36005438819581 -0.5563289003940791 -1.701824845361325 -0.7045552415986571 -0.1 0.4026457665936569 -0.04876219992209616 0.6937911877833641 -0.6190778767809212 0.8591245495630586 0.05196435782927223 0.7317574401770111 0.03942473047310657 0.2853703224638342 -0.1593385402072304 0.3280260153445523 0.8010660750348243 1.335647409761858 -0.5224581465847264 -1.699776164559699 -0.6757059017479881 -0.1 0.4026457665936427 -0.04876219992209832 0.6937911877833348 -0.6190778767809232 0.8591245495630222 0.05196435782924187 0.7317574401769801 0.03942473047310824 0.2823930131114723 -0.1465901414690529 0.33759107843237 0.7783101878054887 1.313443278100007 -0.4888263975428262 -1.697966055779825 -0.6411993991304317 -0.1 0.4281852246245155 0.3212653424888404 -0.7643104741965554 -0.7457784541010675 1.129602102489624 0.06079679890965662 1.158982777190498 0.02977309352361901 0.2778809809610919 -0.1566331485798301 0.3131642992740364 0.7807945765711746 1.289919086940859 -0.4582908075205964 -1.663317811554529 -0.6549263540317991 -0.09999999999999999 -0.2225827914353501 -0.5413697940134159 0.05506141540849698 -0.5213657699040224 0.6767591409927162 0.7679077424653247 -0.3042299887027635 0.04512032150380429 0.276122222810065 -0.1461616572628839 0.2890769115500638 0.799764176981018 1.260097648558514 -0.4435517512165503 -1.667588953143074 -0.6926252417328429 -0.08970295508266293 0.5340835035812497 -1.228542911258507 0.9675174568525634 -1.521 0.7517445788841017 -0.2178434947666044 -1.922778085286265 0.01960646836446086 0.2743634646590381 -0.1356901659459376 0.2649895238260912 0.8187337773908614 1.230276210176168 -0.4288126949125043 -1.671860094731618 -0.7303241294338867 -0.0897029550826596 0.5340835035812355 -1.228542911258464 0.9675174568525274 -1.521 0.751744578884071 -0.2178434947665396 -1.922778085286194 0.01960646836446159 0.2726047065080112 -0.1252186746289914 0.2409021361021186 0.8377033778007048 1.200454771793822 -0.4140736386084582 -1.676131236320163 -0.7680230171349305 -0.08970295508266027 0.5340835035812352 -1.228542911258472 0.9675174568525347 -1.521 0.7517445788840794 -0.2178434947665979 -1.922778085286208 0.01960646836446145 0.2708459483569843 -0.1147471833120452 0.216814748378146 0.8566729782105482 1.170633333411476 -0.3993345823044122 -1.680402377908708 -0.8057219048359743 -0.08970295508266243 0.5340835035812298 -1.228542911258464 0.9675174568525274 -1.521 0.7517445788840681 -0.2178434947665963 -1.922778085286194 0.01960646836446159 0.2690871902059574 -0.104275691995099 0.1927273606541733 0.8756425786203916 1.14081189502913 -0.3845955260003662 -1.684673519497253 -0.8434207925370181 -0.0897029550826596 0.5340835035812298 -1.228542911258467 0.9675174568525274 -1.521 0.751744578884071 -0.2178434947665963 -1.922778085286194 0.01960646836446159 0.2673284320549306 -0.09380420067815276 0.1686399729302007 0.894612179030235 1.110990456646784 -0.3698564696963201 -1.688944661085798 -0.8811196802380619 -0.08970295508265461 0.5340835035812366 -1.228542911258473 0.9675174568525347 -1.521 0.7517445788840794 -0.2178434947665979 -1.922778085286208 0.01960646836446145 0.2655696739039037 -0.08333270936120654 0.1445525852062281 0.9135817794400785 1.081169018264438 -0.3551174133922741 -1.693215802674342 -0.9188185679391057 -0.08970295508266243 0.5340835035812311 -1.228542911258462 0.9675174568525274 -1.521 0.7517445788840681 -0.2178434947665396 -1.922778085286194 0.01960646836446159 0.2638109157528769 -0.07286121804426032 0.1204651974822555 0.9325513798499219 1.051347579882093 -0.3403783570882281 -1.697486944262887 -0.9565174556401494 -0.08970295508265727 0.534083503581251 -1.228542911258509 0.9675174568525634 -1.521 0.7517445788840961 -0.2178434947666044 -1.922778085286265 0.01960646836446086 0.26205215760185 -0.0623897267273141 0.09637780975828286 0.9515209802597653 1.021526141499747 -0.325639300784182 -1.701758085851432 -0.9942163433411932 -0.0897029550826596 0.5340835035812316 -1.228542911258465 0.9675174568525274 -1.521 0.7517445788840738 -0.2178434947665963 -1.922778085286194 0.01960646836446159 0.2602933994508232 -0.05191823541036789 0.07229042203431024 0.9704905806696087 0.9917047031174009 -0.310900244480136 -1.706029227439977 -1.031915231042237 -0.08970295508265677 0.5340835035812305 -1.228542911258464 0.9675174568525274 -1.521 0.751744578884071 -0.2178434947665963 -1.922778085286194 0.01960646836446159 0.2585346412997963 -0.04144674409342167 0.04820303431033761 0.9894601810794521 0.961883264735055 -0.2961611881760899 -1.710300369028522 -1.069614118743281 -0.08970295508266027 0.5340835035812356 -1.228542911258474 0.9675174568525347 -1.521 0.7517445788840794 -0.2178434947665866 -1.92277808528622 0.01960646836446145 0.2567758831487695 -0.03097525277647545 0.02411564658636498 1.008429781489296 0.9320618263527092 -0.2814221318720439 -1.714571510617066 -1.107313006444325 -0.08970295508265744 0.534083503581235 -1.228542911258474 0.9675174568525573 -1.521 0.7517445788840738 -0.2178434947665526 -1.92277808528622 0.01960646836446145 0.2550171249977426 -0.02050376145952923 2.825886239235173e-05 1.027399381899139 0.9022403879703633 -0.2666830755679979 -1.718842652205611 -1.145011894145368 -0.08970295508266027 0.5340835035812354 -1.228542911258474 0.967517456852512 -1.521 0.7517445788840738 -0.2178434947665979 -1.922778085286163 0.01960646836446145 0.2532583668467158 -0.01003227014258301 -0.02405912886158027 1.046368982308982 0.8724189495880175 -0.2519440192639518 -1.723113793794156 -1.182710781846412 -0.08970295508265461 0.5340835035812352 -1.228542911258473 0.967517456852512 -1.521 0.7517445788840794 -0.2178434947665979 -1.92277808528622 0.01960646836446145 0.2514996086956889 0.0004392211743632045 -0.0481465165855529 1.065338582718826 0.8425975112056716 -0.2372049629599058 -1.727384935382701 -1.220409669547456 -0.0897029550826631 0.534083503581235 -1.228542911258474 0.9675174568525686 -1.521 0.7517445788840752 -0.2178434947665979 -1.92277808528622 0.01960646836446145 0.249740850544662 0.01091071249130942 -0.07223390430952553 1.084308183128669 0.8127760728233258 -0.2224659066558597 -1.731656076971246 -1.2581085572485 -0.08970295508266027 0.534083503581235 -1.228542911258474 0.967517456852512 -1.521 0.7517445788840809 -0.2178434947665866 -1.92277808528622 0.01960646836446145 0.2479820923936352 0.02138220380825564 -0.09632129203349817 1.103277783538513 0.7829546344409799 -0.2077268503518137 -1.73592721855979 -1.295807444949544 -0.08970295508265602 0.5340835035812352 -1.228542911258474 0.9675174568525686 -1.521 0.7517445788840738 -0.2178434947665526 -1.92277808528622 0.01960646836446145 0.2462233342426083 0.03185369512520186 -0.1204086797574708 1.122247383948356 0.753133196058634 -0.1929877940477677 -1.740198360148335 -1.333506332650587 -0.08970295508266027 0.5340835035812352 -1.228542911258474 0.967517456852512 -1.521 0.7517445788840752 -0.2178434947665979 -1.922778085286163 0.01960646836446145 0.2444645760915815 0.04232518644214808 -0.1444960674814434 1.141216984358199 0.7233117576762882 -0.1782487377437216 -1.74446950173688 -1.371205220351631 -0.08970295508265602 0.5340835035812356 -1.228542911258472 0.967517456852512 -1.521 0.7517445788840794 -0.2178434947665979 -1.92277808528622 0.01960646836446145 0.2427058179405546 0.05279667775909429 -0.168583455205416 1.160186584768043 0.6934903192939423 -0.1635096814396756 -1.748740643325425 -1.408904108052675 -0.08970295508266168 0.5340835035812345 -1.228542911258473 0.9675174568525686 -1.521 0.7517445788840752 -0.2178434947665866 -1.92277808528622 0.01960646836446145 0.2409470597895277 0.06326816907604051 -0.1926708429293887 1.179156185177886 0.6636688809115965 -0.1487706251356296 -1.75301178491397 -1.446602995753719 -0.08970295508266027 0.5340835035812352 -1.228542911258477 0.967517456852512 -1.521 0.7517445788840738 -0.2178434947665979 -1.92277808528622 0.01960646836446145 0.2391883016385009 0.07373966039298673 -0.2167582306533613 1.19812578558773 0.6338474425292507 -0.1340315688315835 -1.757282926502515 -1.484301883454763 -0.08970295508265635 0.5340835035812371 -1.228542911258476 0.9675174568525722 -1.521 0.7517445788840835 -0.2178434947665987 -1.922778085286227 0.01960646836446137 0.237429543487474 0.08421115170993294 -0.2408456183773339 1.217095385997573 0.604026004146905 -0.1192925125275375 -1.76155406809106 -1.522000771155806 -0.08970295508266202 0.5340835035812371 -1.228542911258476 0.9675174568525156 -1.521 0.7517445788840764 -0.2178434947665987 -1.92277808528617 0.01960646836446137 0.2356707853364472 0.09468264302687916 -0.2649330061013065 1.236064986407416 0.5742045657645592 -0.1045534562234914 -1.765825209679604 -1.55969965885685 -0.08970295508265635 0.5340835035812371 -1.228542911258476 0.9675174568525156 -1.521 0.7517445788840829 -0.2178434947665534 -1.922778085286227 0.01960646836446137 0.2339120271854203 0.1051541343438254 -0.2890203938252792 1.25503458681726 0.5443831273822135 -0.08981439991944536 -1.770096351268149 -1.597398546557894 -0.0897029550826606 0.5340835035812378 -1.228542911258483 0.9675174568525722 -1.521 0.7517445788840793 -0.2178434947665874 -1.922778085286227 0.01960646836446137 0.2321532690343935 0.1156256256607716 -0.3131077815492518 1.274004187227103 0.5145616889998678 -0.07507534361539932 -1.774367492856694 -1.635097434258938 -0.08970295508265635 0.5340835035812365 -1.228542911258475 0.9675174568525156 -1.521 0.7517445788840793 -0.2178434947665987 -1.922778085286227 0.01960646836446137 0.2303945108833666 0.1260971169777178 -0.3371951692732244 1.292973787636947 0.484740250617522 -0.06033628731135327 -1.778638634445239 -1.672796321959982 -0.08970295508266202 0.5340835035812365 -1.228542911258478 0.9675174568525609 -1.521 0.7517445788840796 -0.2178434947665987 -1.922778085286227 0.01960646836446137 0.2286357527323397 0.136568608294664 -0.361282556997197 1.31194338804679 0.4549188122351762 -0.04559723100730723 -1.782909776033784 -1.710495209661025 -0.08970295508266186 0.5340835035812348 -1.228542911258476 0.9675174568525139 -1.521 0.7517445788840781 -0.2178434947665983 -1.922778085286178 0.01960646836446141 0.2268769945813129 0.1470400996116102 -0.3853699447211696 1.330912988456634 0.4250973738528304 -0.03085817470326118 -1.787180917622329 -1.748194097362069 -0.08970295508265479 0.5340835035812348 -1.228542911258473 0.9675174568525705 -1.521 0.7517445788840788 -0.2178434947665983 -1.922778085286223 0.01960646836446141 0.225118236430286 0.1575115909285565 -0.4094573324451423 1.349882588866477 0.3952759354704846 -0.01611911839921513 -1.791452059210874 -1.785892985063113 -0.08970295508266186 0.5340835035812405 -1.228542911258481 0.9675174568525139 -1.521 0.7517445788840785 -0.2178434947665983 -1.922778085286212 0.01960646836446141 0.2233594782792592 0.1679830822455027 -0.4335447201691149 1.36885218927632 0.3654544970881388 -0.001380062095169091 -1.795723200799419 -1.823591872764157 -0.0897029550826562 0.5340835035812362 -1.228542911258473 0.9675174568525139 -1.521 0.7517445788840781 -0.2178434947665983 -1.922778085286223 0.01960646836446141 0.2216007201282323 0.1784545735624489 -0.4576321078930875 1.387821789686164 0.335633058705793 0.01335899420887695 -1.799994342387964 -1.8612907604652 -0.08970295508266186 0.5340835035812348 -1.228542911258476 0.9675174568525705 -1.521 0.7517445788840781 -0.2178434947665983 -1.922778085286178 0.01960646836446141 0.2198419619772055 0.1889260648793951 -0.4817194956170601 1.406791390096007 0.3058116203234472 0.028098050512923 -1.804265483976509 -1.898989648166244 -0.08970295508265479 0.5340835035812348 -1.228542911258476 0.9675174568525139 -1.521 0.7517445788840785 -0.2178434947665983 -1.922778085286223 0.01960646836446141 0.2180832038261786 0.1993975561963413 -0.5058068833410327 1.425760990505851 0.2759901819411014 0.04283710681696904 -1.808536625565053 -1.936688535867288 -0.08970295508266186 0.5340835035812362 -1.228542911258476 0.9675174568525705 -1.521 0.7517445788840782 -0.2178434947665417 -1.922778085286223 0.01960646836446141 0.2163244456751517 0.2098690475132876 -0.5298942710650054 1.444730590915694 0.2461687435587556 0.05757616312101509 -1.812807767153598 -1.974387423568332 -0.08970295508266177 0.5340835035812399 -1.228542911258477 0.9675174568525129 -1.521 0.7517445788840779 -0.2178434947665981 -1.922778085286221 0.01960646836446143 0.2145656875241249 0.2203405388302338 -0.5539816587889781 1.463700191325537 0.2163473051764098 0.07231521942506113 -1.817078908742143 -2.012086311269376 -0.0897029550826562 0.5340835035812348 -1.228542911258478 0.9675174568525139 -1.521 0.7517445788840776 -0.2178434947665983 -1.922778085286223 0.01960646836446141 0.212806929373098 0.23081203014718 -0.5780690465129508 1.482669791735381 0.186525866794064 0.08705427572910716 -1.821350050330688 -2.04978519897042 -0.08970295508266045 0.5340835035812348 -1.228542911258478 0.9675174568525705 -1.521 0.7517445788840781 -0.2178434947665983 -1.922778085286223 0.01960646836446141 0.2110481712220712 0.2412835214641262 -0.6021564342369234 1.501639392145224 0.1567044284117182 0.1017933320331532 -1.825621191919233 -2.087484086671464 -0.0897029550826562 0.5340835035812362 -1.228542911258478 0.9675174568525139 -1.521 0.7517445788840781 -0.2178434947665983 -1.922778085286223 0.01960646836446141 0.2092894130710443 0.2517550127810724 -0.6262438219608961 1.520608992555068 0.1268829900293724 0.1165323883371993 -1.829892333507778 -2.125182974372508 -0.08970295508266186 0.5340835035812334 -1.228542911258478 0.9675174568525705 -1.521 0.7517445788840809 -0.217843494766587 -1.922778085286223 0.01960646836446141 0.2075306549200175 0.2622265040980186 -0.6503312096848687 1.539578592964911 0.09706155164702657 0.1312714446412453 -1.834163475096323 -2.162881862073551 -0.08970295508265611 0.534083503581237 -1.228542911258471 0.9675174568525129 -1.521 0.7517445788840751 -0.2178434947665981 -1.922778085286153 0.01960646836446143 0.2057718967689906 0.2726979954149648 -0.6744185974088412 1.558548193374754 0.06724011326468077 0.1460105009452913 -1.838434616684868 -2.200580749774595 -0.08970295508266045 0.5340835035812348 -1.228542911258473 0.9675174568525139 -1.521 0.7517445788840766 -0.2178434947665983 -1.922778085286223 0.01960646836446141 0.2040131386179637 0.283169486731911 -0.6985059851328138 1.577517793784598 0.03741867488233498 0.1607495572493374 -1.842705758273413 -2.238279637475639 -0.08970295508266189 0.534083503581235 -1.228542911258473 0.9675174568525708 -1.521 0.7517445788840811 -0.2178434947665984 -1.922778085286224 0.0196064683644614 0.2022543804669369 0.2936409780488572 -0.7225933728567865 1.596487394194441 0.007597236499989182 0.1754886135533834 -1.846976899861958 -2.275978525176682 -0.0897029550826562 0.5340835035812348 -1.228542911258478 0.9675174568525139 -1.521 0.7517445788840766 -0.2178434947665983 -1.922778085286178 0.01960646836446141 0.20049562231591 0.3041124693658034 -0.7466807605807591 1.615456994604285 -0.02222420188235661 0.1902276698574294 -1.851248041450503 -2.313677412877726 -0.08970295508266046 0.5340835035812349 -1.228542911258473 0.9675174568525593 -1.521 0.7517445788840753 -0.2178434947665984 -1.922778085286224 0.0196064683644614 0.3219706358043045 1.339591986839496 0.1653008707901177 0.5931184090500801 0.8973419193294294 -1.581545233661764 -0.8331486613458041 0.6249310488236899 0.09375367088957633 0.7991767451287481 0.7038618335535543 -0.7890346544141033 0.7097154963274043 -1.367443467734024 0.785762861630279 2.268 1.295682743254593 0.3207962365223045 1.344357992865413 0.1746082835909672 0.5803974632979776 0.9199096641562587 -1.605687003305224 -0.864086804961632 0.6606656091334752 -0.07453673834197698 0.3024887272453622 0.5907225959779403 -0.8073726027592409 1.432328950560312 -1.5322291103264 -1.963581169389218 2.268 0.01575597897256847 0.3196218372403046 1.349123998891329 0.1839156963918167 0.5676765175458751 0.9424774089830881 -1.629828772948683 -0.89502494857746 0.6964001694432604 -0.07453673834196993 0.3024887272453058 0.5907225959779421 -0.8073726027592409 1.432328950560312 -1.532229110326329 -1.963581169389218 2.268 0.01575597897256847 0.3184474379583046 1.353890004917246 0.1932231091926662 0.5549555717937726 0.9650451538099174 -1.653970542592142 -0.9259630921932879 0.7321347297530457 -0.07453673834197345 0.3024887272453622 0.5907225959779403 -0.8073726027592409 1.432328950560312 -1.532229110326343 -1.963581169389218 2.268 0.01575597897256847 0.3172730386763046 1.358656010943162 0.2025305219935157 0.5422346260416702 0.9876128986367467 -1.678112312235602 -0.9569012358091158 0.767869290062831 -0.07453673834197698 0.3024887272453058 0.5907225959779421 -0.8073726027592409 1.432328950560312 -1.5322291103264 -1.963581169389218 2.268 0.01575597897256847 0.3160986393943047 1.363422016969079 0.2118379347943652 0.5295136802895677 1.010180643463576 -1.702254081879061 -0.9878393794249437 0.8036038503726163 -0.0745367383419664 0.3024887272453622 0.5907225959779403 -0.8073726027592409 1.432328950560312 -1.532229110326329 -1.963581169389218 2.268 0.01575597897256847 0.3149242401123047 1.368188022994995 0.2211453475952148 0.5167927345374652 1.032748388290405 -1.72639585152252 -1.018777523040772 0.8393384106824016 -0.07453673834197698 0.3024887272453058 0.5907225959779473 -0.8073726027592409 1.432328950560283 -1.532229110326329 -1.963581169389246 2.268 0.01575597897256847 0.3144781614503326 1.355111578006305 0.2209118202633586 0.506649198659352 1.042921519687705 -1.719140815551474 -1.019639219037127 0.8383990324686283 -0.04284610992678466 -1.256 -0.02243043342935075 -0.9742924069905451 0.9771350734898046 0.6968503433092922 -0.08276639196340915 -0.09022781325655653 0.01041118231583598 0.313190495963471 1.317364677429751 0.2202377125081464 0.4773685309689359 1.072287618787134 -1.698198187664821 -1.022126619330538 0.835687392105384 -0.04284610992677733 -1.256 -0.02243043342934579 -0.9742924069905179 0.9771350734897831 0.6968503433093696 -0.0827663919634435 -0.09022781325655028 0.03005326479025005 0.3119028304766094 1.279617776853196 0.2195636047529342 0.4480878632785198 1.101653717886562 -1.677255559778168 -1.024614019623949 0.8329757517421396 -0.04284610992677632 -1.256 -0.02243043342934434 -0.9742924069904948 0.9771350734897304 0.6968503433093457 -0.08276639196344154 -0.09022781325655184 0.03005326479025075 0.3106151649897478 1.241870876276642 0.218889496997722 0.4188071955881038 1.13101981698599 -1.656312931891516 -1.02710141991736 0.8302641113788952 -0.04284610992677733 -1.256 -0.02243043342934579 -0.9742924069905142 0.9771350734897536 0.6968503433093326 -0.0827663919634435 -0.09022781325655028 0.03005326479025005 0.3093274995028861 1.204123975700088 0.2182153892425099 0.3895265278976877 1.160385916085418 -1.635370304004863 -1.029588820210771 0.8275524710156508 -0.04284610992677917 -1.256 -0.0224304334293421 -0.9742924069905179 0.9771350734897536 0.6968503433093621 -0.0827663919634435 -0.09022781325655398 0.03005326479025005 0.3080398340160245 1.166377075123534 0.2175412814872976 0.3602458602072716 1.189752015184846 -1.614427676118211 -1.032076220504182 0.8248408306524064 -0.04284610992677758 -1.256 -0.02243043342934962 -0.9742924069905234 0.9771350734897593 0.6968503433093366 -0.08276639196344397 -0.0902278132565508 0.03005326479024987 0.3067521685291629 1.12863017454698 0.2168671737320855 0.3309651925168554 1.219118114284274 -1.593485048231558 -1.034563620797593 0.822129190289162 -0.04284610992677733 -1.256 -0.0224304334293421 -0.9742924069905216 0.9771350734897536 0.6968503433093696 -0.0827663919634435 -0.09022781325655398 0.03005326479025005 0.3054645030423013 1.090883273970426 0.2161930659768733 0.3016845248264393 1.248484213383702 -1.572542420344906 -1.037051021091004 0.8194175499259176 -0.04284610992677733 -1.256 -0.02243043342934579 -0.9742924069905179 0.9771350734897536 0.6968503433093253 -0.0827663919634435 -0.09022781325655028 0.03005326479025005 0.3041768375554396 1.053136373393872 0.2155189582216611 0.2724038571360231 1.27785031248313 -1.551599792458253 -1.039538421384415 0.8167059095626732 -0.04284610992678103 -1.256 -0.02243043342934579 -0.9742924069905216 0.9771350734897536 0.6968503433093696 -0.0827663919634435 -0.09022781325655398 0.03005326479025005 0.302889172068578 1.015389472817318 0.2148448504664489 0.243123189445607 1.307216411582558 -1.530657164571601 -1.042025821677826 0.8139942691994289 -0.04284610992677758 -1.256 -0.022430433429345 -0.9742924069905234 0.9771350734897593 0.6968503433093366 -0.08276639196344397 -0.0902278132565508 0.03005326479024987 0.3016015065817164 0.977642572240764 0.2141707427112367 0.2138425217551909 1.336582510681986 -1.509714536684948 -1.044513221971237 0.8112826288361844 -0.04284610992677733 -1.256 -0.02243043342934579 -0.9742924069905188 0.9771350734897536 0.6968503433093621 -0.0827663919634435 -0.09022781325655398 0.03005326479025005 0.3003138410948548 0.93989567166421 0.2134966349560245 0.1845618540647747 1.365948609781414 -1.488771908798296 -1.047000622264648 0.8085709884729401 -0.04284610992677733 -1.256 -0.02243043342934579 -0.9742924069905207 0.9771350734897536 0.6968503433093326 -0.0827663919634435 -0.09022781325655028 0.03005326479025005 0.2990261756079931 0.9021487710876558 0.2128225272008123 0.1552811863743586 1.395314708880842 -1.467829280911643 -1.049488022558059 0.8058593481096956 -0.0428461099267809 -1.256 -0.02243043342934573 -0.9742924069905159 0.9771350734897507 0.6968503433093601 -0.08276639196344325 -0.0902278132565537 0.03005326479025013 0.2977385101211315 0.8644018705111016 0.2121484194456001 0.1260005186839424 1.424680807980271 -1.44688665302499 -1.05197542285147 0.8031477077464513 -0.0428461099267772 -1.256 -0.02243043342934573 -0.9742924069905177 0.9771350734897876 0.6968503433093675 -0.08276639196344325 -0.09022781325655001 0.03005326479025013 0.2964508446342698 0.8266549699345476 0.2114743116903879 0.0967198509935263 1.454046907079699 -1.425944025138338 -1.054462823144881 0.8004360673832068 -0.04284610992678103 -1.256 -0.02243043342934487 -0.9742924069905183 0.9771350734897536 0.6968503433093326 -0.0827663919634435 -0.09022781325655398 0.03005326479025005 0.2951631791474083 0.7889080693579934 0.2108002039351757 0.06743918330311016 1.483413006179127 -1.405001397251685 -1.056950223438292 0.7977244270199625 -0.04284610992677351 -1.256 -0.02243043342934573 -0.9742924069905163 0.9771350734897507 0.6968503433093601 -0.08276639196344325 -0.09022781325655001 0.03005326479025013 0.2938755136605466 0.7511611687814392 0.2101260961799636 0.03815851561269402 1.512779105278555 -1.384058769365033 -1.059437623731703 0.795012786656718 -0.0428461099267809 -1.256 -0.02243043342934203 -0.9742924069905166 0.9771350734897507 0.6968503433093305 -0.08276639196344325 -0.0902278132565537 0.03005326479025013 0.292587848173685 0.7134142682048852 0.2094519884247514 0.008877847922277891 1.542145204377983 -1.36311614147838 -1.061925024025114 0.7923011462934736 -0.04284610992677733 -1.256 -0.02243043342934579 -0.9742924069905189 0.9771350734897536 0.6968503433093696 -0.0827663919634435 -0.09022781325655398 0.03005326479025005 0.2913001826868233 0.6756673676283311 0.2087778806695392 -0.02040281976813825 1.571511303477411 -1.342173513591727 -1.064412424318525 0.7895895059302291 -0.04284610992678103 -1.256 -0.02243043342934579 -0.9742924069905193 0.9771350734897536 0.6968503433093621 -0.0827663919634435 -0.09022781325655398 0.03005326479025005 0.2900125171999617 0.6379204670517771 0.208103772914327 -0.04968348745855438 1.600877402576839 -1.321230885705075 -1.066899824611936 0.7868778655669847 -0.04284610992677733 -1.256 -0.02243043342934579 -0.974292406990519 0.9771350734897536 0.6968503433093326 -0.08276639196345088 -0.09022781325655398 0.03005326479025005 0.2887248517131001 0.600173566475223 0.2074296651591148 -0.07896415514897051 1.630243501676267 -1.300288257818422 -1.069387224905347 0.7841662252037402 -0.04284610992677733 -1.256 -0.02243043342934579 -0.974292406990519 0.9771350734897536 0.6968503433093621 -0.0827663919634435 -0.09022781325655398 0.03005326479025005 0.2874371862262385 0.562426665898669 0.2067555574039026 -0.1082448228393866 1.659609600775696 -1.279345629931769 -1.071874625198758 0.7814545848404958 -0.04284610992677733 -1.256 -0.02243043342934487 -0.9742924069905179 0.9771350734897831 0.6968503433093696 -0.0827663919634435 -0.09022781325655398 0.03005326479025005 0.2861495207393768 0.5246797653221148 0.2060814496486904 -0.1375254905298028 1.688975699875124 -1.258403002045117 -1.074362025492169 0.7787429444772513 -0.0428461099267809 -1.256 -0.02243043342934573 -0.9742924069905187 0.9771350734897507 0.6968503433093305 -0.08276639196344325 -0.0902278132565537 0.03005326479025013 0.2848618552525152 0.4869328647455607 0.2054073418934782 -0.1668061582202189 1.718341798974552 -1.237460374158464 -1.07684942578558 0.7760313041140069 -0.04284610992677727 -1.256 -0.02243043342934576 -0.9742924069905164 0.9771350734897521 0.6968503433093611 -0.08276639196344338 -0.09022781325655384 0.03005326479025009 0.2835741897656536 0.4491859641690066 0.204733234138266 -0.196086825910635 1.74770789807398 -1.216517746271811 -1.079336826078991 0.7733196637507624 -0.04284610992677727 -1.256 -0.02243043342934576 -0.9742924069905164 0.9771350734897521 0.6968503433093611 -0.08276639196344338 -0.09022781325655384 0.03005326479025009 0.282286524278792 0.4114390635924525 0.2040591263830538 -0.2253674936010512 1.777073997173408 -1.195575118385159 -1.081824226372402 0.770608023387518 -0.04284610992677733 -1.256 -0.02243043342934579 -0.9742924069905216 0.9771350734897536 0.6968503433093326 -0.0827663919634435 -0.09022781325655398 0.03005326479025005 0.2809988587919303 0.3736921630158984 0.2033850186278416 -0.2546481612914673 1.806440096272836 -1.174632490498506 -1.084311626665813 0.7678963830242735 -0.04284610992677911 -1.256 -0.02243043342934484 -0.9742924069905154 0.9771350734897521 0.6968503433093686 -0.08276639196344338 -0.09022781325655384 0.03005326479025009 0.2797111933050687 0.3359452624393442 0.2027109108726294 -0.2839288289818834 1.835806195372264 -1.153689862611853 -1.086799026959224 0.7651847426610291 -0.04284610992677713 -1.256 -0.02243043342934569 -0.9742924069905134 0.9771350734897493 0.696850343309359 -0.08276639196344313 -0.09022781325655357 0.03005326479025018 0.2784235278182071 0.2981983618627901 0.2020368031174173 -0.3132094966722996 1.865172294471692 -1.132747234725201 -1.089286427252635 0.7624731022977846 -0.04284610992677727 -1.256 -0.02243043342934206 -0.9742924069905201 0.9771350734897521 0.6968503433093316 -0.08276639196344338 -0.09022781325655384 0.03005326479025009 0.2771358623313455 0.260451461286236 0.2013626953622051 -0.3424901643627157 1.89453839357112 -1.111804606838548 -1.091773827546046 0.7597614619345402 -0.04284610992677727 -1.256 -0.02243043342934576 -0.9742924069905164 0.9771350734897521 0.6968503433093611 -0.08276639196344338 -0.09022781325655384 0.03005326479025009 0.2758481968444839 0.2227045607096819 0.2006885876069929 -0.3717708320531319 1.923904492670548 -1.090861978951895 -1.094261227839457 0.7570498215712957 -0.04284610992677729 -1.256 -0.02243043342934577 -0.9742924069905208 0.9771350734897528 0.696850343309369 -0.08276639196344343 -0.09022781325655389 0.03005326479025007 0.2745605313576223 0.1849576601331278 0.2000144798517807 -0.401051499743548 1.953270591769976 -1.069919351065242 -1.096748628132868 0.7543381812080513 -0.04284610992677729 -1.256 -0.02243043342934577 -0.974292406990517 0.9771350734897528 0.6968503433093616 -0.08276639196344343 -0.09022781325655389 0.03005326479025007 0.2732728658707607 0.1472107595565737 0.1993403720965685 -0.4303321674339642 1.982636690869404 -1.04897672317859 -1.099236028426279 0.7516265408448068 -0.04284610992677727 -1.256 -0.02243043342934576 -0.9742924069905201 0.9771350734897521 0.6968503433093316 -0.08276639196344338 -0.09022781325655384 0.03005326479025009 0.2719852003838991 0.1094638589800196 0.1986662643413563 -0.4596128351243803 2.012002789968832 -1.028034095291937 -1.10172342871969 0.7489149004815624 -0.04284610992677729 -1.256 -0.02243043342934484 -0.9742924069905168 0.9771350734897526 0.6968503433093688 -0.08276639196344342 -0.09022781325655388 0.03005326479025008 0.2706975348970375 0.07171695840346551 0.1979921565861441 -0.4888935028147964 2.041368889068261 -1.007091467405284 -1.104210829013101 0.7462032601183179 -0.04284610992677729 -1.256 -0.02243043342934577 -0.9742924069905168 0.9771350734897895 0.6968503433093615 -0.08276639196344342 -0.09022781325655388 0.03005326479025008 0.2680736754427541 0.08591144713382497 0.1925870260081844 -0.5160810642753444 2.045926084088516 -1.0179126922443 -1.080759190338903 0.7901828772896589 -0.09999999999999999 0.5409774790790435 -0.205999241656635 -1.036166834933361 0.1736828934497704 -0.4124163289825079 0.893784102495031 1.676142260575166 0.02623859454283395 0.2654498159884707 0.1001059358641844 0.1871818954302247 -0.5432686257358923 2.050483279108771 -1.028733917083315 -1.057307551664705 0.8341624944609998 -0.09999999999999999 0.5409774790790425 -0.205999241656634 -1.036166834933357 0.1736828934497873 -0.4124163289824656 0.8937841024950395 1.676142260575166 0.02623859454283395 0.2628259565341873 0.1143004245945439 0.1817767648522651 -0.5704561871964402 2.055040474129026 -1.039555141922331 -1.033855912990507 0.8781421116323407 -0.1 0.5409774790790337 -0.2059992416566264 -1.036166834933335 0.1736828934497668 -0.4124163289824991 0.8937841024950207 1.676142260575131 0.0262385945428345 0.2602020970799038 0.1284949133249033 0.1763716342743054 -0.5976437486569881 2.059597669149281 -1.050376366761346 -1.010404274316309 0.9221217288036816 -0.1 0.5409774790790295 -0.2059992416566296 -1.036166834933335 0.1736828934497837 -0.4124163289824568 0.8937841024950122 1.676142260575131 0.0262385945428345 0.2575782376256204 0.1426894020552628 0.1709665036963458 -0.624831310117536 2.064154864169537 -1.061197591600362 -0.9869526356421116 0.9661013459750225 -0.1 0.5409774790790337 -0.2059992416566264 -1.036166834933335 0.1736828934498175 -0.4124163289824991 0.8937841024949995 1.676142260575131 0.0262385945428345 0.2549543781713369 0.1568838907856223 0.1655613731183861 -0.6520188715780839 2.068712059189792 -1.072018816439377 -0.9635009969679137 1.010080963146363 -0.1 0.5409774790790337 -0.2059992416566307 -1.036166834933335 0.1736828934497668 -0.4124163289824568 0.8937841024950122 1.676142260575114 0.0262385945428345 0.2523305187170535 0.1710783795159817 0.1601562425404264 -0.6792064330386318 2.073269254210047 -1.082840041278393 -0.9400493582937158 1.054060580317704 -0.1 0.5409774790790305 -0.2059992416566296 -1.036166834933335 0.1736828934497837 -0.4124163289824991 0.8937841024950122 1.676142260575139 0.0262385945428345 0.2497066592627701 0.1852728682463411 0.1547511119624668 -0.7063939944991797 2.077826449230302 -1.093661266117408 -0.916597719619518 1.098040197489045 -0.09999999999999999 0.5409774790790466 -0.205999241656633 -1.036166834933368 0.1736828934497723 -0.4124163289824784 0.8937841024950405 1.676142260575184 0.02623859454283367 0.2470827998084866 0.1994673569767006 0.1493459813845071 -0.7335815559597276 2.082383644250557 -1.104482490956424 -0.8931460809453201 1.142019814660386 -0.09999999999999999 0.5409774790790222 -0.2059992416566253 -1.036166834933313 0.17368289344978 -0.4124163289824819 0.8937841024949932 1.676142260575095 0.02623859454283506 0.2444589403542032 0.21366184570706 0.1439408508065474 -0.7607691174202755 2.086940839270813 -1.115303715795439 -0.8696944422711222 1.185999431831727 -0.09999999999999999 0.5409774790790419 -0.205999241656635 -1.036166834933357 0.1736828934498212 -0.412416328982474 0.893784102495031 1.676142260575175 0.02623859454283395 0.2418350808999198 0.2278563344374195 0.1385357202285878 -0.7879566788808234 2.091498034291068 -1.126124940634455 -0.8462428035969244 1.229979049003068 -0.09999999999999999 0.5409774790790451 -0.2059992416566308 -1.036166834933357 0.1736828934497704 -0.4124163289824994 0.893784102495031 1.676142260575166 0.02623859454283395 0.2392112214456364 0.2420508231677789 0.1331305896506281 -0.8151442403413713 2.096055229311323 -1.13694616547347 -0.8227911649227265 1.273958666174409 -0.1 0.5409774790790353 -0.2059992416566318 -1.036166834933346 0.1736828934497855 -0.4124163289824697 0.8937841024950217 1.676142260575149 0.02623859454283423 0.2365873619913529 0.2562453118981384 0.1277254590726685 -0.8423318018019192 2.100612424331578 -1.147767390312486 -0.7993395262485287 1.31793828334575 -0.09999999999999999 0.5409774790790269 -0.2059992416566243 -1.036166834933324 0.1736828934497649 -0.4124163289824948 0.8937841024950027 1.676142260575121 0.02623859454283478 0.2339635025370695 0.2704398006284978 0.1223203284947088 -0.8695193632624671 2.105169619351833 -1.158588615151501 -0.7758878875743308 1.361917900517091 -0.1 0.5409774790790374 -0.2059992416566323 -1.036166834933346 0.1736828934497855 -0.4124163289824612 0.8937841024950217 1.676142260575149 0.02623859454283423 0.2313396430827861 0.2846342893588573 0.1169151979167492 -0.8967069247230151 2.109726814372089 -1.169409839990517 -0.7524362489001329 1.405897517688432 -0.09999999999999999 0.5409774790790451 -0.2059992416566302 -1.036166834933357 0.1736828934498212 -0.4124163289825079 0.893784102495031 1.676142260575175 0.02623859454283395 0.2287157836285027 0.2988287780892167 0.1115100673387895 -0.923894486183563 2.114284009392344 -1.180231064829532 -0.7289846102259351 1.449877134859773 -0.09999999999999999 0.5409774790790409 -0.2059992416566345 -1.036166834933357 0.1736828934497704 -0.4124163289824656 0.893784102495031 1.676142260575166 0.02623859454283395 0.2260919241742192 0.3130232668195762 0.1061049367608299 -0.9510820476441109 2.118841204412599 -1.191052289668548 -0.7055329715517372 1.493856752031113 -0.09999999999999999 0.5409774790790222 -0.2059992416566221 -1.036166834933313 0.17368289344978 -0.4124163289824904 0.8937841024949932 1.676142260575061 0.02623859454283506 0.2234680647199358 0.3272177555499356 0.1006998061828702 -0.9782696091046588 2.123398399432854 -1.201873514507563 -0.6820813328775394 1.537836369202454 -0.09999999999999999 0.5409774790790409 -0.2059992416566345 -1.036166834933357 0.1736828934497704 -0.4124163289824656 0.893784102495031 1.676142260575166 0.02623859454283395 0.2208442052656524 0.341412244280295 0.09529467560491059 -1.005457170565207 2.127955594453109 -1.212694739346579 -0.6586296942033415 1.581815986373795 -0.09999999999999999 0.5409774790790409 -0.2059992416566308 -1.036166834933365 0.1736828934497873 -0.4124163289825079 0.893784102495031 1.676142260575175 0.02623859454283395 0.218220345811369 0.3556067330106545 0.08988954502695094 -1.032644732025755 2.132512789473365 -1.223515964185594 -0.6351780555291436 1.625795603545136 -0.09999999999999999 0.5409774790790451 -0.2059992416566324 -1.036166834933365 0.1736828934498212 -0.4124163289824656 0.893784102495031 1.676142260575166 0.02623859454283395 0.2155964863570856 0.3698012217410139 0.0844844144489913 -1.059832293486302 2.13706998449362 -1.23433718902461 -0.6117264168549458 1.669775220716477 -0.1 0.5409774790790353 -0.2059992416566302 -1.036166834933312 0.1736828934497686 -0.4124163289825035 0.8937841024950217 1.676142260575157 0.02623859454283423 0.2129726269028021 0.3839957104713734 0.07907928387103165 -1.08701985494685 2.141627179513875 -1.245158413863626 -0.5882747781807479 1.713754837887818 -0.09999999999999999 0.5409774790790279 -0.2059992416566258 -1.036166834933324 0.1736828934497818 -0.4124163289824948 0.8937841024950027 1.676142260575113 0.02623859454283478 0.2103487674485187 0.3981901992017328 0.073674153293072 -1.114207416407398 2.14618437453413 -1.255979638702641 -0.5648231395065501 1.757734455059159 -0.1 0.5409774790790374 -0.2059992416566302 -1.036166834933355 0.1736828934497686 -0.4124163289824612 0.8937841024950217 1.676142260575149 0.02623859454283423 0.2077249079942353 0.4123846879320923 0.06826902271511236 -1.141394977867946 2.150741569554385 -1.266800863541657 -0.5413715008323522 1.8017140722305 -0.09999999999999999 0.5409774790790451 -0.2059992416566324 -1.036166834933357 0.1736828934497873 -0.4124163289825079 0.893784102495031 1.676142260575175 0.02623859454283395 0.2051010485399519 0.4265791766624517 0.06286389213715271 -1.168582539328494 2.155298764574641 -1.277622088380672 -0.5179198621581543 1.845693689401841 -0.09999999999999999 0.5409774790790409 -0.2059992416566324 -1.036166834933365 0.1736828934498212 -0.4124163289824656 0.893784102495031 1.676142260575166 0.02623859454283395 0.2024771890856684 0.4407736653928112 0.05745876155919306 -1.195770100789042 2.159855959594896 -1.288443313219688 -0.4944682234839565 1.889673306573182 -0.09999999999999999 0.5409774790790222 -0.2059992416566239 -1.036166834933313 0.1736828934497631 -0.4124163289824904 0.8937841024949911 1.676142260575104 0.02623859454283506 0.199853329631385 0.4549681541231706 0.0520536309812334 -1.22295766224959 2.164413154615151 -1.299264538058704 -0.4710165848097586 1.933652923744523 -0.09999999999999999 0.5409774790790409 -0.2059992416566329 -1.036166834933357 0.1736828934497873 -0.4124163289825079 0.8937841024950332 1.676142260575166 0.02623859454283395 0.1972294701771016 0.46916264285353 0.04664850040327375 -1.250145223710138 2.168970349635406 -1.310085762897719 -0.4475649461355608 1.977632540915863 -0.09999999999999999 0.5409774790790409 -0.2059992416566324 -1.036166834933365 0.1736828934497704 -0.4124163289824656 0.8937841024950289 1.676142260575132 0.02623859454283395 0.1946056107228182 0.4833571315838895 0.0412433698253141 -1.277332785170686 2.173527544655661 -1.320906987736735 -0.424113307461363 2.021612158087204 -0.09999999999999999 0.5409774790790451 -0.2059992416566326 -1.036166834933357 0.1736828934497873 -0.4124163289825079 0.8937841024950289 1.676142260575166 0.02623859454283395 0.1919817512685348 0.4975516203142489 0.03583823924735444 -1.304520346631234 2.178084739675917 -1.33172821257575 -0.4006616687871652 2.065591775258545 -0.09999999999999999 0.5409774790790409 -0.2059992416566326 -1.036166834933365 0.1736828934498212 -0.4124163289824656 0.8937841024950289 1.676142260575166 0.02623859454283395 0.1893578918142513 0.5117461090446084 0.03043310866939479 -1.331707908091782 2.182641934696172 -1.342549437414766 -0.3772100301129674 2.109571392429886 -0.09999999999999999 0.5409774790790222 -0.2059992416566239 -1.036166834933313 0.1736828934497631 -0.4124163289824904 0.8937841024949911 1.676142260575095 0.02623859454283506 0.1867340323599679 0.5259405977749678 0.02502797809143514 -1.358895469552329 2.187199129716427 -1.353370662253782 -0.3537583914387695 2.153551009601227 -0.09999999999999999 0.540977479079043 -0.2059992416566325 -1.036166834933323 0.1736828934497873 -0.4124163289825079 0.893784102495031 1.676142260575183 0.02623859454283395 0.1841101729056845 0.5401350865053273 0.01962284751347549 -1.386083031012877 2.191756324736682 -1.364191887092797 -0.3303067527645717 2.197530626772568 -0.1 0.5409774790790374 -0.2059992416566304 -1.036166834933355 0.1736828934497686 -0.4124163289824612 0.8937841024950196 1.676142260575149 0.02623859454283423 0.1814863134514011 0.5543295752356867 0.01421771693551583 -1.413270592473425 2.196313519756937 -1.375013111931813 -0.3068551140903739 2.241510243943909 -0.09999999999999999 0.540977479079043 -0.2059992416566329 -1.036166834933357 0.1736828934497873 -0.4124163289825079 0.8937841024950289 1.676142260575166 0.02623859454283395 0.1788624539971176 0.5685240639660462 0.008812586357556183 -1.440458153933973 2.200870714777193 -1.385834336770828 -0.2834034754161761 2.28548986111525 -0.09999999999999999 0.5409774790790201 -0.2059992416566237 -1.036166834933313 0.1736828934498138 -0.4124163289824481 0.8937841024949911 1.676142260575095 0.02623859454283506 0.1762385945428342 0.5827185526964056 0.00340745577959653 -1.467645715394521 2.205427909797448 -1.396655561609844 -0.2599518367419783 2.329469478286591 -0.09999999999999999 0.540977479079043 -0.2059992416566326 -1.036166834933365 0.1736828934497704 -0.4124163289825079 0.8937841024950289 1.676142260575166 0.02623859454283395 0.1736147350885508 0.596913041426765 -0.001997674798363123 -1.494833276855069 2.209985104817703 -1.40747678644886 -0.2365001980677805 2.373449095457932 -0.09999999999999999 0.540977479079043 -0.2059992416566326 -1.036166834933357 0.1736828934497873 -0.4124163289825079 0.8937841024950289 1.676142260575183 0.02623859454283395 0.1709908756342674 0.6111075301571245 -0.007402805376322774 -1.522020838315617 2.214542299837958 -1.418298011287875 -0.2130485593935826 2.417428712629273 -0.09999999999999999 0.540977479079043 -0.2059992416566326 -1.036166834933365 0.1736828934497704 -0.4124163289824656 0.893784102495032 1.676142260575166 0.02623859454283395 0.168367016179984 0.6253020188874839 -0.01280793595428243 -1.549208399776165 2.219099494858213 -1.429119236126891 -0.1895969207193848 2.461408329800614 -0.09999999999999999 0.540977479079043 -0.2059992416566327 -1.036166834933357 0.1736828934497873 -0.4124163289825079 0.8937841024950289 1.676142260575166 0.02623859454283395 0.1657431567257005 0.6394965076178434 -0.01821306653224208 -1.576395961236713 2.223656689878469 -1.439940460965906 -0.166145282045187 2.505387946971954 -0.09999999999999999 0.5409774790790201 -0.2059992416566238 -1.036166834933322 0.1736828934498138 -0.4124163289824566 0.8937841024949911 1.676142260575061 0.02623859454283506 0.1631192972714171 0.6536909963482028 -0.02361819711020173 -1.603583522697261 2.228213884898724 -1.450761685804922 -0.1426936433709891 2.549367564143295 -0.09999999999999999 0.540977479079043 -0.2059992416566325 -1.036166834933357 0.1736828934497704 -0.4124163289824994 0.893784102495032 1.676142260575166 0.02623859454283395 0.1604954378171337 0.6678854850785623 -0.02902332768816138 -1.630771084157808 2.232771079918979 -1.461582910643938 -0.1192420046967913 2.593347181314636 -0.09999999999999999 0.540977479079043 -0.2059992416566325 -1.036166834933323 0.1736828934497873 -0.4124163289825079 0.8937841024950289 1.676142260575166 0.02623859454283395 0.1578715783628503 0.6820799738089217 -0.03442845826612104 -1.657958645618356 2.237328274939234 -1.472404135482953 -0.09579036602259347 2.637326798485977 -0.1 0.5409774790790374 -0.2059992416566306 -1.036166834933346 0.1736828934497686 -0.4124163289824612 0.8937841024950206 1.676142260575165 0.02623859454283423 0.1552477189085668 0.6962744625392812 -0.03983358884408069 -1.685146207078904 2.241885469959489 -1.483225360321969 -0.07233872734839565 2.681306415657318 -0.09999999999999999 0.5409774790790258 -0.2059992416566261 -1.036166834933333 0.1736828934497818 -0.4124163289824948 0.8937841024950011 1.676142260575113 0.02623859454283478 0.1526238594542834 0.7104689512696406 -0.04523871942204034 -1.712333768539452 2.246442664979745 -1.494046585160984 -0.04888708867419782 2.725286032828659 -0.1 0.5409774790790374 -0.2059992416566302 -1.036166834933346 0.1736828934498194 -0.4124163289824697 0.8937841024950206 1.676142260575149 0.02623859454283423 0.15 0.72466344 -0.05064385 -1.73952133 2.25099986 -1.50486781 -0.02543545 2.76926565 -0.09999999999999999 0.540977479079043 -0.2059992416566329 -1.036166834933365 0.1736828934497704 -0.4124163289824994 0.8937841024950295 1.676142260575166 0.02623859454283395 </data>\n<description><![CDATA[{"planning_method": "PlanToConfiguration", "planner": "CBiRRTPlanner", "deterministic_endpoint": true, "deterministic": false, "smooth": true, "constrained": false}]]></description>\n</trajectory>\n'
p119
sVgripper
p120
S'gripper'
p121
sVtrajectory
p122
S'traj'
p123
sVrobot
p124
S'fetch'
p125
sVgripper_close_traj
p126
S'close'
p127
sS'current_hl_state'
p128
g0
(g24
g2
Ntp129
Rp130
(dp131
g28
(dp132
sg30
g31
((lp133
g33
ag34
ag35
ag36
ag37
atp134
Rp135
sg40
g31
((lp136
tp137
Rp138
sbsVtraj1
p139
S'<trajectory>\n<configuration>\n<group name="joint_values fetch 11 10 9 12 1 2 13 14" offset="0" dof="8" interpolation="linear"/>\n<group name="joint_velocities fetch 11 10 9 12 1 2 13 14" offset="8" dof="8" interpolation="next"/>\n<group name="deltatime" offset="16" dof="1" interpolation=""/>\n</configuration>\n<data count="29">\n0 1.32000492 1.39998343 -0.1998453339999998 1.71996798 2.706226490100048e-06 1.660006469999999 -1.347754262640726e-06 0 0 0 0 0 0 0 0 0 0.005674712888660963 1.306501092214609 1.383238601560492 -0.2013699685116181 1.722968132154686 -0.03934196101896876 1.665225757160077 -0.0389537015579122 0.1 -0.2379649517136607 -0.2950779848786179 -0.02686716564400603 0.05286879201731361 -0.6933331785661997 0.09197447099935299 -0.6864198166128009 0.05674712888660963 0.1541481805276966 1.01344089557891 0.7271199112046358 -0.2084986737710242 1.735705082586595 -1.047512604435322 0.9148532363761683 -0.6125477098179137 0.1 -0.1973821998609059 -0.4419097235278379 -0.004801332771951663 0.008578603729303984 -0.6790241108043552 -0.5053916586687344 -0.3863276162273697 1.484734676390356 0.3076556684581352 0.734224936921355 -0.03728440455292092 -0.2029390418298342 1.722920916812166 -2.081480696355818 -0.211002714603134 -1.029742853999048 0.1 -0.1818907744644228 -0.4979589765053962 0.003621733386523295 -0.008328040505895258 -0.6735619909232274 -0.7334208683614706 -0.2717751099999662 1.535074879304386 0.3375210614107426 0.6933372385147364 -0.234609646731909 -0.1945526246730714 1.705771692277775 -2.277905693775879 -0.6277965008747985 -1.011565691027391 0.1 -0.1369066145270622 -0.6607153721101816 0.02808071927957239 -0.05742172742078103 -0.6577010311960808 -1.39557442600224 0.06086363236707527 0.2986539295260743 0.3732089833594858 0.1543304945527745 -0.1606849551886377 0.1431722626315773 1.769843584652971 -1.661914691512153 -1.836363165108603 -0.7763322191615073 0.06697206647765953 -1.011501749537943 0.1387273084571066 0.6337755848102423 0.1202375145760543 1.15597065058867 -2.268 0.4414398725204395 0.5328777179161396 0.3728193459731604 0.1284075036814365 -0.1363073484413057 0.1586865120823783 1.77619661430545 -1.616990002268015 -1.841739564571708 -0.7783798567290504 -0.01362547730916356 -0.9065175373291214 0.8524760180740888 0.5425276456506302 0.2221631301622591 1.571 -0.188010728591522 -0.07160513901673757 0.02859623758379246 0.3724297085868349 0.1024845128100985 -0.1119297416939736 0.1742007615331793 1.78254964395793 -1.572065313023878 -1.847115964034812 -0.7804274942965936 -0.01362547730916771 -0.9065175373291391 0.8524760180741097 0.5425276456506409 0.2221631301623024 1.571 -0.188010728591487 -0.07160513901674287 0.02859623758379189 0.3720400712005094 0.07656152193876048 -0.0875521349466415 0.1897150109839802 1.788902673610409 -1.527140623779741 -1.852492363497916 -0.7824751318641368 -0.01362547730916577 -0.90651753732914 0.8524760180741091 0.542527645650638 0.2221631301622635 1.571 -0.188010728591487 -0.071605139016739 0.02859623758379189 0.3716504338141839 0.05063853106742247 -0.06317452819930944 0.2052292604347812 1.795255703262889 -1.482215934535604 -1.85786876296102 -0.78452276943168 -0.01362547730916778 -0.9065175373291438 0.8524760180741121 0.5425276456506445 0.2221631301623034 1.571 -0.1880107285914878 -0.0716051390167432 0.02859623758379175 0.3712607964278585 0.02471554019608445 -0.03879692145197737 0.2207435098855822 1.801608732915368 -1.437291245291467 -1.863245162424124 -0.7865704069992231 -0.01362547730916383 -0.90651753732914 0.8524760180741082 0.5425276456506409 0.2221631301622635 1.571 -0.188010728591487 -0.071605139016739 0.02859623758379189 0.370871159041533 -0.001207450675253564 -0.01441931470464531 0.2362577593363832 1.807961762567848 -1.39236655604733 -1.868621561887229 -0.7886180445667663 -0.01362547730916577 -0.9065175373291396 0.8524760180741079 0.5425276456506419 0.2221631301622946 1.571 -0.1880107285915258 -0.07160513901674287 0.02859623758379189 0.3704815216552075 -0.02713044154659159 0.009958292042686761 0.2517720087871842 1.814314792220327 -1.347441866803193 -1.873997961350333 -0.7906656821343094 -0.01362547730916771 -0.9065175373291402 0.8524760180741083 0.5425276456506409 0.2221631301622713 1.571 -0.188010728591487 -0.071605139016739 0.02859623758379189 0.3700918842688821 -0.05305343241792961 0.03433589879001883 0.2672862582379852 1.820667821872807 -1.302517177559056 -1.879374360813437 -0.7927133197018527 -0.01362547730916195 -0.9065175373291443 0.8524760180741123 0.5425276456506435 0.2221631301622956 1.571 -0.1880107285914878 -0.0716051390167432 0.02859623758379175 0.3697022468825566 -0.07897642328926763 0.0587135055373509 0.2828005076887862 1.827020851525286 -1.257592488314919 -1.884750760276541 -0.7947609572693958 -0.01362547730916771 -0.9065175373291398 0.8524760180741082 0.5425276456506409 0.2221631301622635 1.571 -0.188010728591487 -0.071605139016739 0.02859623758379189 0.3693126094962311 -0.1048994141606057 0.08309111228468297 0.2983147571395872 1.833373881177766 -1.212667799070782 -1.890127159739645 -0.796808594836939 -0.01362547730916577 -0.906517537329142 0.8524760180741082 0.5425276456506429 0.2221631301623024 1.571 -0.188010728591487 -0.07160513901674287 0.02859623758379189 0.3689229721099057 -0.1308224050319437 0.107468719032015 0.3138290065903881 1.839726910830245 -1.167743109826645 -1.89550355920275 -0.7988562324044821 -0.01362547730916389 -0.9065175373291433 0.8524760180741112 0.5425276456506396 0.2221631301622645 1.571 -0.1880107285915266 -0.07160513901673933 0.02859623758379175 0.3685333347235802 -0.1567453959032817 0.1318463257793471 0.3293432560411891 1.846079940482725 -1.122818420582508 -1.900879958665854 -0.8009038699720253 -0.01362547730916771 -0.9065175373291395 0.8524760180741091 0.5425276456506409 0.2221631301623024 1.571 -0.188010728591487 -0.07160513901674287 0.02859623758379189 0.3681436973372547 -0.1826683867746197 0.1562239325266792 0.3448575054919901 1.852432970135204 -1.077893731338371 -1.906256358128958 -0.8029515075395685 -0.01362547730916577 -0.9065175373291385 0.8524760180741097 0.5425276456506429 0.2221631301622635 1.571 -0.188010728591487 -0.071605139016739 0.02859623758379189 0.3677540599509292 -0.2085913776459577 0.1806015392740113 0.3603717549427911 1.858785999787684 -1.032969042094234 -1.911632757592062 -0.8049991451071117 -0.01362547730916771 -0.9065175373291395 0.8524760180741087 0.5425276456506409 0.2221631301623024 1.571 -0.188010728591487 -0.07160513901674287 0.02859623758379189 0.3673644225646038 -0.2345143685172957 0.2049791460213434 0.3758860043935921 1.865139029440164 -0.9880443528500966 -1.917009157055166 -0.8070467826746548 -0.01362547730916376 -0.906517537329135 0.8524760180741053 0.5425276456506382 0.2221631301622934 1.571 -0.188010728591486 -0.07160513901673862 0.02859623758379204 0.3669747851782783 -0.2604373593886338 0.2293567527686755 0.3914002538443931 1.871492059092643 -0.9431196636059596 -1.922385556518271 -0.809094420242198 -0.01362547730916577 -0.9065175373291434 0.8524760180741097 0.5425276456506409 0.2221631301622635 1.571 -0.1880107285915258 -0.07160513901674287 0.02859623758379189 0.3665851477919528 -0.2863603502599718 0.2537343595160075 0.4069145032951941 1.877845088745123 -0.8981949743618225 -1.927761955981375 -0.8111420578097411 -0.01362547730916771 -0.9065175373291385 0.8524760180741048 0.5425276456506409 0.2221631301623024 1.571 -0.188010728591487 -0.071605139016739 0.02859623758379189 0.3661955104056274 -0.3122833411313098 0.2781119662633396 0.4224287527459951 1.884198118397602 -0.8532702851176854 -1.933138355444479 -0.8131896953772844 -0.01362547730916189 -0.9065175373291385 0.8524760180741106 0.5425276456506429 0.2221631301622635 1.571 -0.188010728591487 -0.07160513901674287 0.02859623758379189 0.3658058730193019 -0.3382063320026479 0.3024895730106717 0.437943002196796 1.890551148050082 -0.8083455958735484 -1.938514754907583 -0.8152373329448275 -0.01362547730916771 -0.9065175373291424 0.8524760180741087 0.542527645650637 0.2221631301623024 1.571 -0.188010728591487 -0.071605139016739 0.02859623758379189 0.3654162356329764 -0.3641293228739859 0.3268671797580038 0.453457251647597 1.896904177702561 -0.7634209066294112 -1.943891154370687 -0.8172849705123707 -0.01362547730916574 -0.9065175373291381 0.8524760180741064 0.5425276456506395 0.2221631301622629 1.571 -0.1880107285914865 -0.07160513901674269 0.02859623758379197 0.365026598246651 -0.390052313745324 0.3512447865053359 0.468971501098398 1.903257207355041 -0.7184962173852741 -1.949267553833792 -0.8193326080799138 -0.01362547730916383 -0.9065175373291424 0.8524760180741106 0.5425276456506429 0.2221631301622946 1.571 -0.1880107285915258 -0.071605139016739 0.02859623758379189 0.3646369608603255 -0.415975304616662 0.3756223932526679 0.484485750549199 1.90961023700752 -0.6735715281411371 -1.954643953296896 -0.8213802456474569 -0.01362547730916771 -0.9065175373291385 0.8524760180741048 0.5425276456506409 0.2221631301622713 1.571 -0.188010728591487 -0.071605139016739 0.02859623758379189 0.364247323474 -0.441898295488 0.4 0.5 1.91596326666 -0.628646838897 -1.96002035276 -0.823427883215 -0.01362547730916577 -0.9065175373291405 0.8524760180741106 0.5425276456506409 0.2221631301622946 1.571 -0.188010728591487 -0.071605139016739 0.02859623758379189 </data>\n<description><![CDATA[{"planning_method": "PlanToConfigurations", "planner": "CBiRRTPlanner", "deterministic_endpoint": false, "deterministic": false, "smooth": true, "constrained": false}]]></description>\n</trajectory>\n'
p140
sVcbpose
p141
(lp142
cnumpy.core.multiarray
scalar
p143
(cnumpy
dtype
p144
(S'f8'
p145
I0
I1
tp146
Rp147
(I3
S'<'
p148
NNNI-1
I-1
I0
tp149
bS'\x00\x00\x00\x00\x00\x00\x00\x00'
p150
tp151
Rp152
ag143
(g147
S'\x00\x00\x00\x00\x00\x00\x00\x00'
p153
tp154
Rp155
ag143
(g147
S'\x00\x00\x00\x00\x00\x00\x00\x00'
p156
tp157
Rp158
asVpose_current
p159
cnumpy.core.multiarray
_reconstruct
p160
(cnumpy
ndarray
p161
(I0
tp162
S'b'
p163
tp164
Rp165
(I1
(I4
I4
tp166
g147
I00
S'\x00\x00\x00\x00\x00\x00\xb0<\x00\x00\x00\x00\x00\x00\xf0\xbf\x00\x00\x00\x00\x00\x00\x00\x00\x142\xba\xc0n\x0e\xef?\x00\x00\x00\x00\x00\x00\xf0?\x00\x00\x00\x00\x00\x00\xb0<\x00\x00\x00\x00\x00\x00\x00\x00\xca\xed\xab\xff"\xaa\xe1\xbf\x00\x00\x00\x00\x00\x00\x00\x00\x00\x00\x00\x00\x00\x00\x00\x00\x00\x00\x00\x00\x00\x00\xf0?\xc0\xca\xa1E\xb6\xf3\xe9?\x00\x00\x00\x00\x00\x00\x00\x00\x00\x00\x00\x00\x00\x00\x00\x00\x00\x00\x00\x00\x00\x00\x00\x00\x00\x00\x00\x00\x00\x00\xf0?'
p167
tp168
bsVpose_end
p169
g160
(g161
(I0
tp170
g163
tp171
Rp172
(I1
(I8
tp173
g147
I00
S"333333\xc3?\xfc\x04\xedaq0\xe7?\xe9\xaf\xfc\x9e\xfd\xed\xa9\xbf\xf6\xb5pQ\x14\xd5\xfb\xbf/\x01\xf06\x0c\x02\x02@\xde\x0c\xccD\xf0\x13\xf8\xbf8\xdc\xa2'\xc0\x0b\x9a\xbfM}\xc5\xbft'\x06@"
p174
tp175
bsVgpose
p176
g160
(g161
(I0
tp177
g163
tp178
Rp179
(I1
(I4
I4
tp180
g147
I00
S'\x00\x00\x00\x00\x00\x00\xb0<\x00\x00\x00\x00\x00\x00\xf0\xbf\x00\x00\x00\x00\x00\x00\x00\x00\x142\xba\xc0n\x0e\xef?\x00\x00\x00\x00\x00\x00\xf0?\x00\x00\x00\x00\x00\x00\xb0<\x00\x00\x00\x00\x00\x00\x00\x00\xca\xed\xab\xff"\xaa\xe1\xbf\x00\x00\x00\x00\x00\x00\x00\x00\x00\x00\x00\x00\x00\x00\x00\x00\x00\x00\x00\x00\x00\x00\xf0?\xc0\xca\xa1E\xb6\xf3\xe9?\x00\x00\x00\x00\x00\x00\x00\x00\x00\x00\x00\x00\x00\x00\x00\x00\x00\x00\x00\x00\x00\x00\x00\x00\x00\x00\x00\x00\x00\x00\xf0?'
p181
tp182
bsVendpose
p183
g160
(g161
(I0
tp184
g163
tp185
Rp186
(I1
(I8
tp187
g147
I00
S"333333\xc3?\xfc\x04\xedaq0\xe7?\xe9\xaf\xfc\x9e\xfd\xed\xa9\xbf\xf6\xb5pQ\x14\xd5\xfb\xbf/\x01\xf06\x0c\x02\x02@\xde\x0c\xccD\xf0\x13\xf8\xbf8\xdc\xa2'\xc0\x0b\x9a\xbfM}\xc5\xbft'\x06@"
p188
tp189
bsVbase_traj
p190
I1
sVcpose
p191
g160
(g161
(I0
tp192
g163
tp193
Rp194
(I1
(I8
tp195
g147
I00
S'\xba|~\x01\xd4O\xd7?\xdc\xdc\xd1\xc9\x0fH\xdc\xbf\x95\x99\x99\x99\x99\x99\xd9?\x03\x00\x00\x00\x00\x00\xe0?\xbeE*\x19\xc9\xa7\xfe?\x11|\xb9\xf9\xdf\x1d\xe4\xbf\xcc\x93)M>\\\xff\xbf\xdd\xbb\xa0n\x85Y\xea\xbf'
p196
tp197
bsVt
p198
g119
ssS'll_plan'
p199
ccollections
OrderedDict
p200
((lp201
(lp202
g141
a(dp203
S'type'
p204
VBasePose
p205
sS'value'
p206
g142
saa(lp207
g114
a(dp208
g204
VBasePose
p209
sg206
g115
saa(lp210
g159
ag165
aa(lp211
g169
ag172
aa(lp212
g190
a(dp213
g204
VBaseTrajectory
p214
sg206
I1
saa(lp215
g191
a(dp216
g204
VManipPose
p217
sg206
g194
saa(lp218
g176
a(dp219
g204
VManipPose
p220
sg206
g179
saa(lp221
g139
a(dp222
g204
VManipTrajectory
p223
sg206
g140
saa(lp224
g198
ag119
aa(lp225
g126
a(dp226
g204
VGripperCloseTrajectory
p227
sg206
g127
saa(lp228
g183
a(dp229
g204
VManipPose
p230
sg206
g186
saa(lp231
g118
a(dp232
g204
VManipTrajectory
p233
sg206
g119
saatp234
Rp235
sS'exec_seq'
p236
(lp237
Vbase_traj
p238
aVtraj1
p239
aVgripper_close_traj
p240
aVtraj2
p241
asS'effect'
p242
g31
((lp243
g60
ag61
ag62
ag63
ag64
ag34
ag35
ag65
ag72
ag67
ag68
ag69
ag70
ag71
ag36
ag66
ag73
ag74
ag75
ag33
ag56
atp244
Rp245
sS'has_mp'
p246
I01
sbssg49
(dp247
ssS'_Graph__root_node'
p248
g19
sb.